(dp0
S'METTS MARK'
p1
(dp2
S'salary'
p3
F365788.0
sS'sent_received_ratio'
p4
F0.02631578947368421
sS'total_payments'
p5
F1061827.0
sS'bonus'
p6
F600000.0
sS'shared_receipt_with_poi'
p7
F702.0
sS'from_this_person_to_poi'
p8
F1.0
sS'poi'
p9
I00
sS'from_poi_to_this_person'
p10
F38.0
ssS'CALGER CHRISTOPHER F'
p11
(dp12
g3
F240189.0
sg4
F0.12562814070351758
sg5
F1639297.0
sg6
F1250000.0
sg7
F2188.0
sg8
F25.0
sg9
I01
sg10
F199.0
ssS'BOWEN JR RAYMOND M'
p13
(dp14
g3
F278601.0
sg4
F0.10714285714285714
sg5
F2669589.0
sg6
F1350000.0
sg7
F1593.0
sg8
F15.0
sg9
I01
sg10
F140.0
ssS'HANNON KEVIN P'
p15
(dp16
g3
F243293.0
sg4
F0.65625
sg5
F288682.0
sg6
F1500000.0
sg7
F1035.0
sg8
F21.0
sg9
I01
sg10
F32.0
ssS'RICE KENNETH D'
p17
(dp18
g3
F420636.0
sg4
F0.09523809523809523
sg5
F505050.0
sg6
F1750000.0
sg7
F864.0
sg8
F4.0
sg9
I01
sg10
F42.0
ssS'FITZGERALD JAY L'
p19
(dp20
g3
F199157.0
sg4
F8.0
sg5
F1414857.0
sg6
F350000.0
sg7
F723.0
sg8
F8.0
sg9
I00
sg10
F1.0
ssS'BUCHANAN HAROLD G'
p21
(dp22
g3
F248017.0
sg4
F0.0
sg5
F1054637.0
sg6
F500000.0
sg7
F23.0
sg8
F0.0
sg9
I00
sg10
F0.0
ssS'LEFF DANIEL P'
p23
(dp24
g3
F273746.0
sg4
F0.208955223880597
sg5
F2664228.0
sg6
F1000000.0
sg7
F2672.0
sg8
F14.0
sg9
I00
sg10
F67.0
ssS'BELDEN TIMOTHY N'
p25
(dp26
g3
F213999.0
sg4
F0.47368421052631576
sg5
F5501630.0
sg6
F5249999.0
sg7
F5521.0
sg8
F108.0
sg9
I01
sg10
F228.0
ssS'HAEDICKE MARK E'
p27
(dp28
g3
F374125.0
sg4
F0.3388888888888889
sg5
F3859065.0
sg6
F1150000.0
sg7
F1847.0
sg8
F61.0
sg9
I00
sg10
F180.0
ssS'DURAN WILLIAM D'
p29
(dp30
g3
F210692.0
sg4
F0.02830188679245283
sg5
F2093263.0
sg6
F750000.0
sg7
F599.0
sg8
F3.0
sg9
I00
sg10
F106.0
ssS'CAUSEY RICHARD A'
p31
(dp32
g3
F415189.0
sg4
F0.20689655172413793
sg5
F1868758.0
sg6
F1000000.0
sg7
F1585.0
sg8
F12.0
sg9
I01
sg10
F58.0
ssS'PIPER GREGORY F'
p33
(dp34
g3
F197091.0
sg4
F0.7868852459016393
sg5
F1737629.0
sg6
F400000.0
sg7
F742.0
sg8
F48.0
sg9
I00
sg10
F61.0
ssS'JACKSON CHARLENE R'
p35
(dp36
g3
F288558.0
sg4
F0.76
sg5
F551174.0
sg6
F250000.0
sg7
F117.0
sg8
F19.0
sg9
I00
sg10
F25.0
ssS'MURRAY JULIA H'
p37
(dp38
g3
F229284.0
sg4
F0.18181818181818182
sg5
F812194.0
sg6
F400000.0
sg7
F395.0
sg8
F2.0
sg9
I00
sg10
F11.0
ssS'GARLAND C KEVIN'
p39
(dp40
g3
F231946.0
sg4
F2.7
sg5
F1566469.0
sg6
F850000.0
sg7
F178.0
sg8
F27.0
sg9
I00
sg10
F10.0
ssS'BLACHMAN JEREMY M'
p41
(dp42
g3
F248546.0
sg4
F0.08
sg5
F2014835.0
sg6
F850000.0
sg7
F2326.0
sg8
F2.0
sg9
I00
sg10
F25.0
ssS'DODSON KEITH'
p43
(dp44
g3
F221003.0
sg4
F0.3
sg5
F319941.0
sg6
F70000.0
sg7
F114.0
sg8
F3.0
sg9
I00
sg10
F10.0
ssS'SUNDE MARTIN'
p45
(dp46
g3
F257486.0
sg4
F0.35135135135135137
sg5
F1545059.0
sg6
F700000.0
sg7
F2565.0
sg8
F13.0
sg9
I00
sg10
F37.0
ssS'SHAPIRO RICHARD S'
p47
(dp48
g3
F269076.0
sg4
F0.8783783783783784
sg5
F1057548.0
sg6
F650000.0
sg7
F4527.0
sg8
F65.0
sg9
I00
sg10
F74.0
ssS'COLWELL WESLEY'
p49
(dp50
g3
F288542.0
sg4
F0.04583333333333333
sg5
F1490344.0
sg6
F1200000.0
sg7
F1132.0
sg8
F11.0
sg9
I01
sg10
F240.0
ssS'MULLER MARK S'
p51
(dp52
g3
F251654.0
sg4
F0.0
sg5
F3202070.0
sg6
F1100000.0
sg7
F114.0
sg8
F0.0
sg9
I00
sg10
F12.0
ssS'WASAFF GEORGE'
p53
(dp54
g3
F259996.0
sg4
F0.3181818181818182
sg5
F1034395.0
sg6
F325000.0
sg7
F337.0
sg8
F7.0
sg9
I00
sg10
F22.0
ssS'DIETRICH JANET R'
p55
(dp56
g3
F250100.0
sg4
F0.04590163934426229
sg5
F1410464.0
sg6
F600000.0
sg7
F1902.0
sg8
F14.0
sg9
I00
sg10
F305.0
ssS'DERRICK JR. JAMES V'
p57
(dp58
g3
F492375.0
sg4
F0.3125
sg5
F550981.0
sg6
F800000.0
sg7
F1401.0
sg8
F20.0
sg9
I00
sg10
F64.0
ssS'FREVERT MARK A'
p59
(dp60
g3
F1060932.0
sg4
F0.024793388429752067
sg5
F17252530.0
sg6
F2000000.0
sg7
F2979.0
sg8
F6.0
sg9
I00
sg10
F242.0
ssS'DEFFNER JOSEPH M'
p61
(dp62
g3
F206121.0
sg4
F0.034782608695652174
sg5
F1208649.0
sg6
F600000.0
sg7
F552.0
sg8
F4.0
sg9
I00
sg10
F115.0
ssS'KAMINSKI WINCENTY J'
p63
(dp64
g3
F275101.0
sg4
F4.170731707317073
sg5
F1086821.0
sg6
F400000.0
sg7
F583.0
sg8
F171.0
sg9
I00
sg10
F41.0
ssS'WALLS JR ROBERT H'
p65
(dp66
g3
F357091.0
sg4
F0.0
sg5
F1798780.0
sg6
F850000.0
sg7
F215.0
sg8
F0.0
sg9
I00
sg10
F17.0
ssS'KITCHEN LOUISE'
p67
(dp68
g3
F271442.0
sg4
F0.7729083665338645
sg5
F3471141.0
sg6
F3100000.0
sg7
F3669.0
sg8
F194.0
sg9
I00
sg10
F251.0
ssS'COX DAVID'
p69
(dp70
g3
F314288.0
sg4
F0.0
sg5
F1101393.0
sg6
F800000.0
sg7
F71.0
sg8
F4.0
sg9
I00
sg10
F0.0
ssS'SHANKMAN JEFFREY A'
p71
(dp72
g3
F304110.0
sg4
F0.8829787234042553
sg5
F3038702.0
sg6
F2000000.0
sg7
F1730.0
sg8
F83.0
sg9
I00
sg10
F94.0
ssS'WHALLEY LAWRENCE G'
p73
(dp74
g3
F510364.0
sg4
F0.12903225806451613
sg5
F4677574.0
sg6
F3000000.0
sg7
F3920.0
sg8
F24.0
sg9
I00
sg10
F186.0
ssS'SKILLING JEFFREY K'
p75
(dp76
g3
F1111258.0
sg4
F0.3409090909090909
sg5
F8682716.0
sg6
F5600000.0
sg7
F2042.0
sg8
F30.0
sg9
I01
sg10
F88.0
ssS'BERGSIEKER RICHARD P'
p77
(dp78
g3
F187922.0
sg4
F0.0
sg5
F618850.0
sg6
F250000.0
sg7
F233.0
sg8
F0.0
sg9
I00
sg10
F4.0
ssS'MCCONNELL MICHAEL S'
p79
(dp80
g3
F365038.0
sg4
F2.108695652173913
sg5
F2101364.0
sg6
F1100000.0
sg7
F2189.0
sg8
F194.0
sg9
I00
sg10
F92.0
ssS'DELAINEY DAVID W'
p81
(dp82
g3
F365163.0
sg4
F9.227272727272727
sg5
F4747979.0
sg6
F3000000.0
sg7
F2097.0
sg8
F609.0
sg9
I01
sg10
F66.0
ssS'BIBI PHILIPPE A'
p83
(dp84
g3
F213625.0
sg4
F0.34782608695652173
sg5
F2047593.0
sg6
F1000000.0
sg7
F1336.0
sg8
F8.0
sg9
I00
sg10
F23.0
ssS'FALLON JAMES B'
p85
(dp86
g3
F304588.0
sg4
F0.8809523809523809
sg5
F3676340.0
sg6
F2500000.0
sg7
F1604.0
sg8
F37.0
sg9
I00
sg10
F42.0
ssS'KOENIG MARK E'
p87
(dp88
g3
F309946.0
sg4
F0.2830188679245283
sg5
F1587421.0
sg6
F700000.0
sg7
F2271.0
sg8
F15.0
sg9
I01
sg10
F53.0
ssS'RIEKER PAULA H'
p89
(dp90
g3
F249201.0
sg4
F1.3714285714285714
sg5
F1099100.0
sg6
F700000.0
sg7
F1258.0
sg8
F48.0
sg9
I01
sg10
F35.0
ssS'UMANOFF ADAM S'
p91
(dp92
g3
F288589.0
sg4
F0.0
sg5
F1130461.0
sg6
F788750.0
sg7
F41.0
sg8
F0.0
sg9
I00
sg10
F12.0
ssS'MCMAHON JEFFREY'
p93
(dp94
g3
F370448.0
sg4
F0.4482758620689655
sg5
F4099771.0
sg6
F2600000.0
sg7
F2228.0
sg8
F26.0
sg9
I00
sg10
F58.0
ssS'SHERRIFF JOHN R'
p95
(dp96
g3
F428780.0
sg4
F0.8214285714285714
sg5
F4335388.0
sg6
F1500000.0
sg7
F2103.0
sg8
F23.0
sg9
I00
sg10
F28.0
ssS'SHELBY REX'
p97
(dp98
g3
F211844.0
sg4
F1.0769230769230769
sg5
F2003885.0
sg6
F200000.0
sg7
F91.0
sg8
F14.0
sg9
I01
sg10
F13.0
ssS'KEAN STEVEN J'
p99
(dp100
g3
F404338.0
sg4
F2.7642857142857142
sg5
F1747522.0
sg6
F1000000.0
sg7
F3639.0
sg8
F387.0
sg9
I00
sg10
F140.0
ssS'LAY KENNETH L'
p101
(dp102
g3
F1072321.0
sg4
F0.13008130081300814
sg5
F103559793.0
sg6
F7000000.0
sg7
F2411.0
sg8
F16.0
sg9
I01
sg10
F123.0
ssS'BECK SALLY W'
p103
(dp104
g3
F231330.0
sg4
F2.6805555555555554
sg5
F969068.0
sg6
F700000.0
sg7
F2639.0
sg8
F386.0
sg9
I00
sg10
F144.0
ssS'OLSON CINDY K'
p105
(dp106
g3
F329078.0
sg4
F0.75
sg5
F1321557.0
sg6
F750000.0
sg7
F856.0
sg8
F15.0
sg9
I00
sg10
F20.0
ssS'BUY RICHARD B'
p107
(dp108
g3
F330546.0
sg4
F0.4551282051282051
sg5
F2355702.0
sg6
F900000.0
sg7
F2333.0
sg8
F71.0
sg9
I00
sg10
F156.0
ssS'TILNEY ELIZABETH A'
p109
(dp110
g3
F247338.0
sg4
F1.1
sg5
F399393.0
sg6
F300000.0
sg7
F379.0
sg8
F11.0
sg9
I00
sg10
F10.0
ssS'PICKERING MARK R'
p111
(dp112
g3
F655037.0
sg4
F0.0
sg5
F1386690.0
sg6
F300000.0
sg7
F728.0
sg8
F0.0
sg9
I00
sg10
F7.0
ssS'LAVORATO JOHN J'
p113
(dp114
g3
F339288.0
sg4
F0.7784090909090909
sg5
F10425757.0
sg6
F8000000.0
sg7
F3962.0
sg8
F411.0
sg9
I00
sg10
F528.0
ssS'ALLEN PHILLIP K'
p115
(dp116
g3
F201955.0
sg4
F1.3829787234042554
sg5
F4484442.0
sg6
F4175000.0
sg7
F1407.0
sg8
F65.0
sg9
I00
sg10
F47.0
ssS'SHARP VICTORIA T'
p117
(dp118
g3
F248146.0
sg4
F0.25
sg5
F1576511.0
sg6
F600000.0
sg7
F2477.0
sg8
F6.0
sg9
I00
sg10
F24.0
ssS'HICKERSON GARY J'
p119
(dp120
g3
F211788.0
sg4
F0.025
sg5
F2081796.0
sg6
F1700000.0
sg7
F900.0
sg8
F1.0
sg9
I00
sg10
F40.0
ssS'MCCLELLAN GEORGE'
p121
(dp122
g3
F263413.0
sg4
F0.0
sg5
F1318763.0
sg6
F900000.0
sg7
F1469.0
sg8
F0.0
sg9
I00
sg10
F52.0
ssS'TAYLOR MITCHELL S'
p123
(dp124
g3
F265214.0
sg4
F0.0
sg5
F1092663.0
sg6
F600000.0
sg7
F300.0
sg8
F0.0
sg9
I00
sg10
F0.0
ssS'DONAHUE JR JEFFREY M'
p125
(dp126
g3
F278601.0
sg4
F0.05851063829787234
sg5
F875760.0
sg6
F800000.0
sg7
F772.0
sg8
F11.0
sg9
I00
sg10
F188.0
ssS'GLISAN JR BEN F'
p127
(dp128
g3
F274975.0
sg4
F0.11538461538461539
sg5
F1272284.0
sg6
F600000.0
sg7
F874.0
sg8
F6.0
sg9
I01
sg10
F52.0
ssS'CARTER REBECCA C'
p129
(dp130
g3
F261809.0
sg4
F0.2413793103448276
sg5
F477557.0
sg6
F300000.0
sg7
F196.0
sg8
F7.0
sg9
I00
sg10
F29.0
ss.