(dp0
S'METTS MARK'
p1
(dp2
S'salary'
p3
F365788.0
sS'sent_received_ratio'
p4
F0.02631578947368421
sS'total_payments'
p5
F1061827.0
sS'bonus'
p6
F600000.0
sS'shared_receipt_with_poi'
p7
F702.0
sS'from_this_person_to_poi'
p8
F1.0
sS'poi'
p9
I00
sS'from_poi_to_this_person'
p10
F38.0
ssS'BAXTER JOHN C'
p11
(dp12
g3
F267102.0
sg4
F0.18019480519480519
sg5
F5634343.0
sg6
F1200000.0
sg7
F740.5
sg8
F8.0
sg9
I00
sg10
F35.0
ssS'ELLIOTT STEVEN'
p13
(dp14
g3
F170941.0
sg4
F0.18019480519480519
sg5
F211725.0
sg6
F350000.0
sg7
F740.5
sg8
F8.0
sg9
I00
sg10
F35.0
ssS'CORDES WILLIAM R'
p15
(dp16
g3
F258741.0
sg4
F0.0
sg5
F1100246.5
sg6
F750000.0
sg7
F58.0
sg8
F0.0
sg9
I00
sg10
F10.0
ssS'HANNON KEVIN P'
p17
(dp18
g3
F243293.0
sg4
F0.65625
sg5
F288682.0
sg6
F1500000.0
sg7
F1035.0
sg8
F21.0
sg9
I01
sg10
F32.0
ssS'MORDAUNT KRISTINA M'
p19
(dp20
g3
F267093.0
sg4
F0.18019480519480519
sg5
F628522.0
sg6
F325000.0
sg7
F740.5
sg8
F8.0
sg9
I00
sg10
F35.0
ssS'MEYER ROCKFORD G'
p21
(dp22
g3
F258741.0
sg4
F0.0
sg5
F1848227.0
sg6
F750000.0
sg7
F22.0
sg8
F0.0
sg9
I00
sg10
F0.0
ssS'MCMAHON JEFFREY'
p23
(dp24
g3
F370448.0
sg4
F0.4482758620689655
sg5
F4099771.0
sg6
F2600000.0
sg7
F2228.0
sg8
F26.0
sg9
I00
sg10
F58.0
ssS'HORTON STANLEY C'
p25
(dp26
g3
F258741.0
sg4
F0.3409090909090909
sg5
F3131860.0
sg6
F750000.0
sg7
F1074.0
sg8
F15.0
sg9
I00
sg10
F44.0
ssS'PIPER GREGORY F'
p27
(dp28
g3
F197091.0
sg4
F0.7868852459016393
sg5
F1737629.0
sg6
F400000.0
sg7
F742.0
sg8
F48.0
sg9
I00
sg10
F61.0
ssS'HUMPHREY GENE E'
p29
(dp30
g3
F130724.0
sg4
F1.7
sg5
F3100224.0
sg6
F750000.0
sg7
F119.0
sg8
F17.0
sg9
I00
sg10
F10.0
ssS'UMANOFF ADAM S'
p31
(dp32
g3
F288589.0
sg4
F0.0
sg5
F1130461.0
sg6
F788750.0
sg7
F41.0
sg8
F0.0
sg9
I00
sg10
F12.0
ssS'BLACHMAN JEREMY M'
p33
(dp34
g3
F248546.0
sg4
F0.08
sg5
F2014835.0
sg6
F850000.0
sg7
F2326.0
sg8
F2.0
sg9
I00
sg10
F25.0
ssS'SUNDE MARTIN'
p35
(dp36
g3
F257486.0
sg4
F0.35135135135135137
sg5
F1545059.0
sg6
F700000.0
sg7
F2565.0
sg8
F13.0
sg9
I00
sg10
F37.0
ssS'GIBBS DANA R'
p37
(dp38
g3
F258741.0
sg4
F0.0
sg5
F966522.0
sg6
F750000.0
sg7
F23.0
sg8
F0.0
sg9
I00
sg10
F0.0
ssS'LOWRY CHARLES P'
p39
(dp40
g3
F258741.0
sg4
F0.18019480519480519
sg5
F1100246.5
sg6
F750000.0
sg7
F740.5
sg8
F8.0
sg9
I00
sg10
F35.0
ssS'COLWELL WESLEY'
p41
(dp42
g3
F288542.0
sg4
F0.04583333333333333
sg5
F1490344.0
sg6
F1200000.0
sg7
F1132.0
sg8
F11.0
sg9
I01
sg10
F240.0
ssS'MULLER MARK S'
p43
(dp44
g3
F251654.0
sg4
F0.0
sg5
F3202070.0
sg6
F1100000.0
sg7
F114.0
sg8
F0.0
sg9
I00
sg10
F12.0
ssS'JACKSON CHARLENE R'
p45
(dp46
g3
F288558.0
sg4
F0.76
sg5
F551174.0
sg6
F250000.0
sg7
F117.0
sg8
F19.0
sg9
I00
sg10
F25.0
ssS'WESTFAHL RICHARD K'
p47
(dp48
g3
F63744.0
sg4
F0.18019480519480519
sg5
F762135.0
sg6
F750000.0
sg7
F740.5
sg8
F8.0
sg9
I00
sg10
F35.0
ssS'WALTERS GARETH W'
p49
(dp50
g3
F258741.0
sg4
F0.18019480519480519
sg5
F87410.0
sg6
F750000.0
sg7
F740.5
sg8
F8.0
sg9
I00
sg10
F35.0
ssS'WALLS JR ROBERT H'
p51
(dp52
g3
F357091.0
sg4
F0.0
sg5
F1798780.0
sg6
F850000.0
sg7
F215.0
sg8
F0.0
sg9
I00
sg10
F17.0
ssS'KITCHEN LOUISE'
p53
(dp54
g3
F271442.0
sg4
F0.7729083665338645
sg5
F3471141.0
sg6
F3100000.0
sg7
F3669.0
sg8
F194.0
sg9
I00
sg10
F251.0
ssS'CHAN RONNIE'
p55
(dp56
g3
F258741.0
sg4
F0.18019480519480519
sg5
F1100246.5
sg6
F750000.0
sg7
F740.5
sg8
F8.0
sg9
I00
sg10
F35.0
ssS'BELFER ROBERT'
p57
(dp58
g3
F258741.0
sg4
F0.18019480519480519
sg5
F102500.0
sg6
F750000.0
sg7
F740.5
sg8
F8.0
sg9
I00
sg10
F35.0
ssS'SHANKMAN JEFFREY A'
p59
(dp60
g3
F304110.0
sg4
F0.8829787234042553
sg5
F3038702.0
sg6
F2000000.0
sg7
F1730.0
sg8
F83.0
sg9
I00
sg10
F94.0
ssS'WODRASKA JOHN'
p61
(dp62
g3
F258741.0
sg4
F0.18019480519480519
sg5
F189583.0
sg6
F750000.0
sg7
F740.5
sg8
F8.0
sg9
I00
sg10
F35.0
ssS'BERGSIEKER RICHARD P'
p63
(dp64
g3
F187922.0
sg4
F0.0
sg5
F618850.0
sg6
F250000.0
sg7
F233.0
sg8
F0.0
sg9
I00
sg10
F4.0
ssS'URQUHART JOHN A'
p65
(dp66
g3
F258741.0
sg4
F0.18019480519480519
sg5
F228656.0
sg6
F750000.0
sg7
F740.5
sg8
F8.0
sg9
I00
sg10
F35.0
ssS'BIBI PHILIPPE A'
p67
(dp68
g3
F213625.0
sg4
F0.34782608695652173
sg5
F2047593.0
sg6
F1000000.0
sg7
F1336.0
sg8
F8.0
sg9
I00
sg10
F23.0
ssS'PIRO JIM'
p69
(dp70
g3
F258741.0
sg4
F0.0
sg5
F1100246.5
sg6
F750000.0
sg7
F3.0
sg8
F1.0
sg9
I00
sg10
F0.0
ssS'RIEKER PAULA H'
p71
(dp72
g3
F249201.0
sg4
F1.3714285714285714
sg5
F1099100.0
sg6
F700000.0
sg7
F1258.0
sg8
F48.0
sg9
I01
sg10
F35.0
ssS'WHALEY DAVID A'
p73
(dp74
g3
F258741.0
sg4
F0.18019480519480519
sg5
F1100246.5
sg6
F750000.0
sg7
F740.5
sg8
F8.0
sg9
I00
sg10
F35.0
ssS'BECK SALLY W'
p75
(dp76
g3
F231330.0
sg4
F2.6805555555555554
sg5
F969068.0
sg6
F700000.0
sg7
F2639.0
sg8
F386.0
sg9
I00
sg10
F144.0
ssS'HAUG DAVID L'
p77
(dp78
g3
F258741.0
sg4
F1.75
sg5
F475.0
sg6
F750000.0
sg7
F471.0
sg8
F7.0
sg9
I00
sg10
F4.0
ssS'ECHOLS JOHN B'
p79
(dp80
g3
F182245.0
sg4
F0.18019480519480519
sg5
F2692324.0
sg6
F200000.0
sg7
F740.5
sg8
F8.0
sg9
I00
sg10
F35.0
ssS'MENDELSOHN JOHN'
p81
(dp82
g3
F258741.0
sg4
F0.18019480519480519
sg5
F148.0
sg6
F750000.0
sg7
F740.5
sg8
F8.0
sg9
I00
sg10
F35.0
ssS'HICKERSON GARY J'
p83
(dp84
g3
F211788.0
sg4
F0.025
sg5
F2081796.0
sg6
F1700000.0
sg7
F900.0
sg8
F1.0
sg9
I00
sg10
F40.0
ssS'CLINE KENNETH W'
p85
(dp86
g3
F258741.0
sg4
F0.18019480519480519
sg5
F1100246.5
sg6
F750000.0
sg7
F740.5
sg8
F8.0
sg9
I00
sg10
F35.0
ssS'LEWIS RICHARD'
p87
(dp88
g3
F258741.0
sg4
F0.0
sg5
F1100246.5
sg6
F750000.0
sg7
F739.0
sg8
F0.0
sg9
I00
sg10
F10.0
ssS'HAYES ROBERT E'
p89
(dp90
g3
F258741.0
sg4
F0.0
sg5
F7961.0
sg6
F750000.0
sg7
F50.0
sg8
F0.0
sg9
I00
sg10
F16.0
ssS'KOPPER MICHAEL J'
p91
(dp92
g3
F224305.0
sg4
F0.18019480519480519
sg5
F2652612.0
sg6
F800000.0
sg7
F740.5
sg8
F8.0
sg9
I01
sg10
F35.0
ssS'LEFF DANIEL P'
p93
(dp94
g3
F273746.0
sg4
F0.208955223880597
sg5
F2664228.0
sg6
F1000000.0
sg7
F2672.0
sg8
F14.0
sg9
I00
sg10
F67.0
ssS'LAVORATO JOHN J'
p95
(dp96
g3
F339288.0
sg4
F0.7784090909090909
sg5
F10425757.0
sg6
F8000000.0
sg7
F3962.0
sg8
F411.0
sg9
I00
sg10
F528.0
ssS'BERBERIAN DAVID'
p97
(dp98
g3
F216582.0
sg4
F0.18019480519480519
sg5
F228474.0
sg6
F750000.0
sg7
F740.5
sg8
F8.0
sg9
I00
sg10
F35.0
ssS'DETMERING TIMOTHY J'
p99
(dp100
g3
F210500.0
sg4
F0.18019480519480519
sg5
F1204583.0
sg6
F425000.0
sg7
F740.5
sg8
F8.0
sg9
I00
sg10
F35.0
ssS'WAKEHAM JOHN'
p101
(dp102
g3
F258741.0
sg4
F0.18019480519480519
sg5
F213071.0
sg6
F750000.0
sg7
F740.5
sg8
F8.0
sg9
I00
sg10
F35.0
ssS'POWERS WILLIAM'
p103
(dp104
g3
F258741.0
sg4
F0.0
sg5
F1100246.5
sg6
F750000.0
sg7
F12.0
sg8
F0.0
sg9
I00
sg10
F0.0
ssS'GOLD JOSEPH'
p105
(dp106
g3
F272880.0
sg4
F0.18019480519480519
sg5
F2146973.0
sg6
F750000.0
sg7
F740.5
sg8
F8.0
sg9
I00
sg10
F35.0
ssS'BANNANTINE JAMES M'
p107
(dp108
g3
F477.0
sg4
F0.0
sg5
F916197.0
sg6
F750000.0
sg7
F465.0
sg8
F0.0
sg9
I00
sg10
F39.0
ssS'DUNCAN JOHN H'
p109
(dp110
g3
F258741.0
sg4
F0.18019480519480519
sg5
F77492.0
sg6
F750000.0
sg7
F740.5
sg8
F8.0
sg9
I00
sg10
F35.0
ssS'SHAPIRO RICHARD S'
p111
(dp112
g3
F269076.0
sg4
F0.8783783783783784
sg5
F1057548.0
sg6
F650000.0
sg7
F4527.0
sg8
F65.0
sg9
I00
sg10
F74.0
ssS'SHERRIFF JOHN R'
p113
(dp114
g3
F428780.0
sg4
F0.8214285714285714
sg5
F4335388.0
sg6
F1500000.0
sg7
F2103.0
sg8
F23.0
sg9
I00
sg10
F28.0
ssS'SHELBY REX'
p115
(dp116
g3
F211844.0
sg4
F1.0769230769230769
sg5
F2003885.0
sg6
F200000.0
sg7
F91.0
sg8
F14.0
sg9
I01
sg10
F13.0
ssS'LEMAISTRE CHARLES'
p117
(dp118
g3
F258741.0
sg4
F0.18019480519480519
sg5
F87492.0
sg6
F750000.0
sg7
F740.5
sg8
F8.0
sg9
I00
sg10
F35.0
ssS'DEFFNER JOSEPH M'
p119
(dp120
g3
F206121.0
sg4
F0.034782608695652174
sg5
F1208649.0
sg6
F600000.0
sg7
F552.0
sg8
F4.0
sg9
I00
sg10
F115.0
ssS'KISHKILL JOSEPH G'
p121
(dp122
g3
F174246.0
sg4
F0.18019480519480519
sg5
F704896.0
sg6
F750000.0
sg7
F740.5
sg8
F8.0
sg9
I00
sg10
F35.0
ssS'WHALLEY LAWRENCE G'
p123
(dp124
g3
F510364.0
sg4
F0.12903225806451613
sg5
F4677574.0
sg6
F3000000.0
sg7
F3920.0
sg8
F24.0
sg9
I00
sg10
F186.0
ssS'MCCARTY DANNY J'
p125
(dp126
g3
F258741.0
sg4
F0.08
sg5
F1100246.5
sg6
F750000.0
sg7
F508.0
sg8
F2.0
sg9
I00
sg10
F25.0
ssS'MCCONNELL MICHAEL S'
p127
(dp128
g3
F365038.0
sg4
F2.108695652173913
sg5
F2101364.0
sg6
F1100000.0
sg7
F2189.0
sg8
F194.0
sg9
I00
sg10
F92.0
ssS'DELAINEY DAVID W'
p129
(dp130
g3
F365163.0
sg4
F9.227272727272727
sg5
F4747979.0
sg6
F3000000.0
sg7
F2097.0
sg8
F609.0
sg9
I01
sg10
F66.0
ssS'SULLIVAN-SHAKLOVITZ COLLEEN'
p131
(dp132
g3
F162779.0
sg4
F0.18019480519480519
sg5
F999356.0
sg6
F100000.0
sg7
F740.5
sg8
F8.0
sg9
I00
sg10
F35.0
ssS'WROBEL BRUCE'
p133
(dp134
g3
F258741.0
sg4
F0.18019480519480519
sg5
F1100246.5
sg6
F750000.0
sg7
F740.5
sg8
F8.0
sg9
I00
sg10
F35.0
ssS'LINDHOLM TOD A'
p135
(dp136
g3
F236457.0
sg4
F0.18019480519480519
sg5
F875889.0
sg6
F200000.0
sg7
F740.5
sg8
F8.0
sg9
I00
sg10
F35.0
ssS'MEYER JEROME J'
p137
(dp138
g3
F258741.0
sg4
F0.18019480519480519
sg5
F2151.0
sg6
F750000.0
sg7
F740.5
sg8
F8.0
sg9
I00
sg10
F35.0
ssS'LAY KENNETH L'
p139
(dp140
g3
F1072321.0
sg4
F0.13008130081300814
sg5
F103559793.0
sg6
F7000000.0
sg7
F2411.0
sg8
F16.0
sg9
I01
sg10
F123.0
ssS'BUTTS ROBERT H'
p141
(dp142
g3
F261516.0
sg4
F0.18019480519480519
sg5
F1271582.0
sg6
F750000.0
sg7
F740.5
sg8
F8.0
sg9
I00
sg10
F35.0
ssS'OLSON CINDY K'
p143
(dp144
g3
F329078.0
sg4
F0.75
sg5
F1321557.0
sg6
F750000.0
sg7
F856.0
sg8
F15.0
sg9
I00
sg10
F20.0
ssS'MCDONALD REBECCA'
p145
(dp146
g3
F258741.0
sg4
F0.018518518518518517
sg5
F1100246.5
sg6
F750000.0
sg7
F720.0
sg8
F1.0
sg9
I00
sg10
F54.0
ssS'CUMBERLAND MICHAEL S'
p147
(dp148
g3
F184899.0
sg4
F0.18019480519480519
sg5
F807956.0
sg6
F325000.0
sg7
F740.5
sg8
F8.0
sg9
I00
sg10
F35.0
ssS'GAHN ROBERT S'
p149
(dp150
g3
F192008.0
sg4
F0.18019480519480519
sg5
F900585.0
sg6
F509870.0
sg7
F740.5
sg8
F8.0
sg9
I00
sg10
F35.0
ssS'MCCLELLAN GEORGE'
p151
(dp152
g3
F263413.0
sg4
F0.0
sg5
F1318763.0
sg6
F900000.0
sg7
F1469.0
sg8
F0.0
sg9
I00
sg10
F52.0
ssS'HERMANN ROBERT J'
p153
(dp154
g3
F262663.0
sg4
F0.18019480519480519
sg5
F1297461.0
sg6
F700000.0
sg7
F740.5
sg8
F8.0
sg9
I00
sg10
F35.0
ssS'SCRIMSHAW MATTHEW'
p155
(dp156
g3
F258741.0
sg4
F0.18019480519480519
sg5
F1100246.5
sg6
F750000.0
sg7
F740.5
sg8
F8.0
sg9
I00
sg10
F35.0
ssS'GATHMANN WILLIAM D'
p157
(dp158
g3
F258741.0
sg4
F0.18019480519480519
sg5
F1100246.5
sg6
F750000.0
sg7
F740.5
sg8
F8.0
sg9
I00
sg10
F35.0
ssS'HAEDICKE MARK E'
p159
(dp160
g3
F374125.0
sg4
F0.3388888888888889
sg5
F3859065.0
sg6
F1150000.0
sg7
F1847.0
sg8
F61.0
sg9
I00
sg10
F180.0
ssS'BOWEN JR RAYMOND M'
p161
(dp162
g3
F278601.0
sg4
F0.10714285714285714
sg5
F2669589.0
sg6
F1350000.0
sg7
F1593.0
sg8
F15.0
sg9
I01
sg10
F140.0
ssS'GILLIS JOHN'
p163
(dp164
g3
F258741.0
sg4
F0.18019480519480519
sg5
F1100246.5
sg6
F750000.0
sg7
F740.5
sg8
F8.0
sg9
I00
sg10
F35.0
ssS'FITZGERALD JAY L'
p165
(dp166
g3
F199157.0
sg4
F8.0
sg5
F1414857.0
sg6
F350000.0
sg7
F723.0
sg8
F8.0
sg9
I00
sg10
F1.0
ssS'MORAN MICHAEL P'
p167
(dp168
g3
F258741.0
sg4
F0.0
sg5
F1100246.5
sg6
F750000.0
sg7
F127.0
sg8
F0.0
sg9
I00
sg10
F0.0
ssS'REDMOND BRIAN L'
p169
(dp170
g3
F96840.0
sg4
F0.24019607843137256
sg5
F111529.0
sg6
F750000.0
sg7
F1063.0
sg8
F49.0
sg9
I00
sg10
F204.0
ssS'BAZELIDES PHILIP J'
p171
(dp172
g3
F80818.0
sg4
F0.18019480519480519
sg5
F860136.0
sg6
F750000.0
sg7
F740.5
sg8
F8.0
sg9
I00
sg10
F35.0
ssS'BELDEN TIMOTHY N'
p173
(dp174
g3
F213999.0
sg4
F0.47368421052631576
sg5
F5501630.0
sg6
F5249999.0
sg7
F5521.0
sg8
F108.0
sg9
I01
sg10
F228.0
ssS'DURAN WILLIAM D'
p175
(dp176
g3
F210692.0
sg4
F0.02830188679245283
sg5
F2093263.0
sg6
F750000.0
sg7
F599.0
sg8
F3.0
sg9
I00
sg10
F106.0
ssS'THORN TERENCE H'
p177
(dp178
g3
F222093.0
sg4
F0.0
sg5
F911453.0
sg6
F750000.0
sg7
F73.0
sg8
F0.0
sg9
I00
sg10
F0.0
ssS'FASTOW ANDREW S'
p179
(dp180
g3
F440698.0
sg4
F0.18019480519480519
sg5
F2424083.0
sg6
F1300000.0
sg7
F740.5
sg8
F8.0
sg9
I01
sg10
F35.0
ssS'FOY JOE'
p181
(dp182
g3
F258741.0
sg4
F0.0
sg5
F181755.0
sg6
F750000.0
sg7
F2.0
sg8
F0.0
sg9
I00
sg10
F0.0
ssS'CALGER CHRISTOPHER F'
p183
(dp184
g3
F240189.0
sg4
F0.12562814070351758
sg5
F1639297.0
sg6
F1250000.0
sg7
F2188.0
sg8
F25.0
sg9
I01
sg10
F199.0
ssS'RICE KENNETH D'
p185
(dp186
g3
F420636.0
sg4
F0.09523809523809523
sg5
F505050.0
sg6
F1750000.0
sg7
F864.0
sg8
F4.0
sg9
I01
sg10
F42.0
ssS'KAMINSKI WINCENTY J'
p187
(dp188
g3
F275101.0
sg4
F4.170731707317073
sg5
F1086821.0
sg6
F400000.0
sg7
F583.0
sg8
F171.0
sg9
I00
sg10
F41.0
ssS'LOCKHART EUGENE E'
p189
(dp190
g3
F258741.0
sg4
F0.18019480519480519
sg5
F1100246.5
sg6
F750000.0
sg7
F740.5
sg8
F8.0
sg9
I00
sg10
F35.0
ssS'COX DAVID'
p191
(dp192
g3
F314288.0
sg4
F0.0
sg5
F1101393.0
sg6
F800000.0
sg7
F71.0
sg8
F4.0
sg9
I00
sg10
F0.0
ssS'OVERDYKE JR JERE C'
p193
(dp194
g3
F94941.0
sg4
F0.18019480519480519
sg5
F249787.0
sg6
F750000.0
sg7
F740.5
sg8
F8.0
sg9
I00
sg10
F35.0
ssS'PEREIRA PAULO V. FERRAZ'
p195
(dp196
g3
F258741.0
sg4
F0.18019480519480519
sg5
F27942.0
sg6
F750000.0
sg7
F740.5
sg8
F8.0
sg9
I00
sg10
F35.0
ssS'STABLER FRANK'
p197
(dp198
g3
F239502.0
sg4
F0.18019480519480519
sg5
F1112087.0
sg6
F500000.0
sg7
F740.5
sg8
F8.0
sg9
I00
sg10
F35.0
ssS'SKILLING JEFFREY K'
p199
(dp200
g3
F1111258.0
sg4
F0.3409090909090909
sg5
F8682716.0
sg6
F5600000.0
sg7
F2042.0
sg8
F30.0
sg9
I01
sg10
F88.0
ssS'BLAKE JR. NORMAN P'
p201
(dp202
g3
F258741.0
sg4
F0.18019480519480519
sg5
F1279.0
sg6
F750000.0
sg7
F740.5
sg8
F8.0
sg9
I00
sg10
F35.0
ssS'SHERRICK JEFFREY B'
p203
(dp204
g3
F258741.0
sg4
F0.46153846153846156
sg5
F1100246.5
sg6
F750000.0
sg7
F583.0
sg8
F18.0
sg9
I00
sg10
F39.0
ssS'PRENTICE JAMES'
p205
(dp206
g3
F258741.0
sg4
F0.18019480519480519
sg5
F564348.0
sg6
F750000.0
sg7
F740.5
sg8
F8.0
sg9
I00
sg10
F35.0
ssS'GRAY RODNEY'
p207
(dp208
g3
F6615.0
sg4
F0.18019480519480519
sg5
F1146658.0
sg6
F750000.0
sg7
F740.5
sg8
F8.0
sg9
I00
sg10
F35.0
ssS'PICKERING MARK R'
p209
(dp210
g3
F655037.0
sg4
F0.0
sg5
F1386690.0
sg6
F300000.0
sg7
F728.0
sg8
F0.0
sg9
I00
sg10
F7.0
ssS'THE TRAVEL AGENCY IN THE PARK'
p211
(dp212
g3
F258741.0
sg4
F0.18019480519480519
sg5
F362096.0
sg6
F750000.0
sg7
F740.5
sg8
F8.0
sg9
I00
sg10
F35.0
ssS'NOLES JAMES L'
p213
(dp214
g3
F258741.0
sg4
F0.18019480519480519
sg5
F774401.0
sg6
F750000.0
sg7
F740.5
sg8
F8.0
sg9
I00
sg10
F35.0
ssS'KEAN STEVEN J'
p215
(dp216
g3
F404338.0
sg4
F2.7642857142857142
sg5
F1747522.0
sg6
F1000000.0
sg7
F3639.0
sg8
F387.0
sg9
I00
sg10
F140.0
ssS'FOWLER PEGGY'
p217
(dp218
g3
F258741.0
sg4
F0.0
sg5
F1100246.5
sg6
F750000.0
sg7
F10.0
sg8
F0.0
sg9
I00
sg10
F0.0
ssS'WASAFF GEORGE'
p219
(dp220
g3
F259996.0
sg4
F0.3181818181818182
sg5
F1034395.0
sg6
F325000.0
sg7
F337.0
sg8
F7.0
sg9
I00
sg10
F22.0
ssS'WHITE JR THOMAS E'
p221
(dp222
g3
F317543.0
sg4
F0.18019480519480519
sg5
F1934359.0
sg6
F450000.0
sg7
F740.5
sg8
F8.0
sg9
I00
sg10
F35.0
ssS'CHRISTODOULOU DIOMEDES'
p223
(dp224
g3
F258741.0
sg4
F0.18019480519480519
sg5
F1100246.5
sg6
F750000.0
sg7
F740.5
sg8
F8.0
sg9
I00
sg10
F35.0
ssS'ALLEN PHILLIP K'
p225
(dp226
g3
F201955.0
sg4
F1.3829787234042554
sg5
F4484442.0
sg6
F4175000.0
sg7
F1407.0
sg8
F65.0
sg9
I00
sg10
F47.0
ssS'SHARP VICTORIA T'
p227
(dp228
g3
F248146.0
sg4
F0.25
sg5
F1576511.0
sg6
F600000.0
sg7
F2477.0
sg8
F6.0
sg9
I00
sg10
F24.0
ssS'JAEDICKE ROBERT'
p229
(dp230
g3
F258741.0
sg4
F0.18019480519480519
sg5
F83750.0
sg6
F750000.0
sg7
F740.5
sg8
F8.0
sg9
I00
sg10
F35.0
ssS'WINOKUR JR. HERBERT S'
p231
(dp232
g3
F258741.0
sg4
F0.18019480519480519
sg5
F84992.0
sg6
F750000.0
sg7
F740.5
sg8
F8.0
sg9
I00
sg10
F35.0
ssS'BROWN MICHAEL'
p233
(dp234
g3
F258741.0
sg4
F0.07692307692307693
sg5
F49288.0
sg6
F750000.0
sg7
F761.0
sg8
F1.0
sg9
I00
sg10
F13.0
ssS'BADUM JAMES P'
p235
(dp236
g3
F258741.0
sg4
F0.18019480519480519
sg5
F182466.0
sg6
F750000.0
sg7
F740.5
sg8
F8.0
sg9
I00
sg10
F35.0
ssS'HUGHES JAMES A'
p237
(dp238
g3
F258741.0
sg4
F0.14285714285714285
sg5
F1100246.5
sg6
F750000.0
sg7
F589.0
sg8
F5.0
sg9
I00
sg10
F35.0
ssS'REYNOLDS LAWRENCE'
p239
(dp240
g3
F76399.0
sg4
F0.18019480519480519
sg5
F394475.0
sg6
F100000.0
sg7
F740.5
sg8
F8.0
sg9
I00
sg10
F35.0
ssS'DIMICHELE RICHARD G'
p241
(dp242
g3
F262788.0
sg4
F0.18019480519480519
sg5
F2368151.0
sg6
F1000000.0
sg7
F740.5
sg8
F8.0
sg9
I00
sg10
F35.0
ssS'BHATNAGAR SANJAY'
p243
(dp244
g3
F258741.0
sg4
F0.0
sg5
F15456290.0
sg6
F750000.0
sg7
F463.0
sg8
F1.0
sg9
I00
sg10
F0.0
ssS'CARTER REBECCA C'
p245
(dp246
g3
F261809.0
sg4
F0.2413793103448276
sg5
F477557.0
sg6
F300000.0
sg7
F196.0
sg8
F7.0
sg9
I00
sg10
F29.0
ssS'BUCHANAN HAROLD G'
p247
(dp248
g3
F248017.0
sg4
F0.0
sg5
F1054637.0
sg6
F500000.0
sg7
F23.0
sg8
F0.0
sg9
I00
sg10
F0.0
ssS'YEAP SOON'
p249
(dp250
g3
F258741.0
sg4
F0.18019480519480519
sg5
F55097.0
sg6
F750000.0
sg7
F740.5
sg8
F8.0
sg9
I00
sg10
F35.0
ssS'MURRAY JULIA H'
p251
(dp252
g3
F229284.0
sg4
F0.18181818181818182
sg5
F812194.0
sg6
F400000.0
sg7
F395.0
sg8
F2.0
sg9
I00
sg10
F11.0
ssS'GARLAND C KEVIN'
p253
(dp254
g3
F231946.0
sg4
F2.7
sg5
F1566469.0
sg6
F850000.0
sg7
F178.0
sg8
F27.0
sg9
I00
sg10
F10.0
ssS'DODSON KEITH'
p255
(dp256
g3
F221003.0
sg4
F0.3
sg5
F319941.0
sg6
F70000.0
sg7
F114.0
sg8
F3.0
sg9
I00
sg10
F10.0
ssS'YEAGER F SCOTT'
p257
(dp258
g3
F158403.0
sg4
F0.18019480519480519
sg5
F360300.0
sg6
F750000.0
sg7
F740.5
sg8
F8.0
sg9
I01
sg10
F35.0
ssS'HIRKO JOSEPH'
p259
(dp260
g3
F258741.0
sg4
F0.18019480519480519
sg5
F91093.0
sg6
F750000.0
sg7
F740.5
sg8
F8.0
sg9
I01
sg10
F35.0
ssS'DIETRICH JANET R'
p261
(dp262
g3
F250100.0
sg4
F0.04590163934426229
sg5
F1410464.0
sg6
F600000.0
sg7
F1902.0
sg8
F14.0
sg9
I00
sg10
F305.0
ssS'DERRICK JR. JAMES V'
p263
(dp264
g3
F492375.0
sg4
F0.3125
sg5
F550981.0
sg6
F800000.0
sg7
F1401.0
sg8
F20.0
sg9
I00
sg10
F64.0
ssS'FREVERT MARK A'
p265
(dp266
g3
F1060932.0
sg4
F0.024793388429752067
sg5
F17252530.0
sg6
F2000000.0
sg7
F2979.0
sg8
F6.0
sg9
I00
sg10
F242.0
ssS'PAI LOU L'
p267
(dp268
g3
F261879.0
sg4
F0.18019480519480519
sg5
F3123383.0
sg6
F1000000.0
sg7
F740.5
sg8
F8.0
sg9
I00
sg10
F35.0
ssS'BAY FRANKLIN R'
p269
(dp270
g3
F239671.0
sg4
F0.18019480519480519
sg5
F827696.0
sg6
F400000.0
sg7
F740.5
sg8
F8.0
sg9
I00
sg10
F35.0
ssS'HAYSLETT RODERICK J'
p271
(dp272
g3
F258741.0
sg4
F1.0857142857142856
sg5
F1100246.5
sg6
F750000.0
sg7
F571.0
sg8
F38.0
sg9
I00
sg10
F35.0
ssS'FUGH JOHN L'
p273
(dp274
g3
F258741.0
sg4
F0.18019480519480519
sg5
F50591.0
sg6
F750000.0
sg7
F740.5
sg8
F8.0
sg9
I00
sg10
F35.0
ssS'FALLON JAMES B'
p275
(dp276
g3
F304588.0
sg4
F0.8809523809523809
sg5
F3676340.0
sg6
F2500000.0
sg7
F1604.0
sg8
F37.0
sg9
I00
sg10
F42.0
ssS'KOENIG MARK E'
p277
(dp278
g3
F309946.0
sg4
F0.2830188679245283
sg5
F1587421.0
sg6
F700000.0
sg7
F2271.0
sg8
F15.0
sg9
I01
sg10
F53.0
ssS'SAVAGE FRANK'
p279
(dp280
g3
F258741.0
sg4
F0.18019480519480519
sg5
F3750.0
sg6
F750000.0
sg7
F740.5
sg8
F8.0
sg9
I00
sg10
F35.0
ssS'IZZO LAWRENCE L'
p281
(dp282
g3
F85274.0
sg4
F0.17857142857142858
sg5
F1979596.0
sg6
F750000.0
sg7
F437.0
sg8
F5.0
sg9
I00
sg10
F28.0
ssS'TILNEY ELIZABETH A'
p283
(dp284
g3
F247338.0
sg4
F1.1
sg5
F399393.0
sg6
F300000.0
sg7
F379.0
sg8
F11.0
sg9
I00
sg10
F10.0
ssS'MARTIN AMANDA K'
p285
(dp286
g3
F349487.0
sg4
F0.0
sg5
F8407016.0
sg6
F750000.0
sg7
F477.0
sg8
F0.0
sg9
I00
sg10
F8.0
ssS'BUY RICHARD B'
p287
(dp288
g3
F330546.0
sg4
F0.4551282051282051
sg5
F2355702.0
sg6
F900000.0
sg7
F2333.0
sg8
F71.0
sg9
I00
sg10
F156.0
ssS'GRAMM WENDY L'
p289
(dp290
g3
F258741.0
sg4
F0.18019480519480519
sg5
F119292.0
sg6
F750000.0
sg7
F740.5
sg8
F8.0
sg9
I00
sg10
F35.0
ssS'CAUSEY RICHARD A'
p291
(dp292
g3
F415189.0
sg4
F0.20689655172413793
sg5
F1868758.0
sg6
F1000000.0
sg7
F1585.0
sg8
F12.0
sg9
I01
sg10
F58.0
ssS'TAYLOR MITCHELL S'
p293
(dp294
g3
F265214.0
sg4
F0.0
sg5
F1092663.0
sg6
F600000.0
sg7
F300.0
sg8
F0.0
sg9
I00
sg10
F0.0
ssS'DONAHUE JR JEFFREY M'
p295
(dp296
g3
F278601.0
sg4
F0.05851063829787234
sg5
F875760.0
sg6
F800000.0
sg7
F772.0
sg8
F11.0
sg9
I00
sg10
F188.0
ssS'GLISAN JR BEN F'
p297
(dp298
g3
F274975.0
sg4
F0.11538461538461539
sg5
F1272284.0
sg6
F600000.0
sg7
F874.0
sg8
F6.0
sg9
I01
sg10
F52.0
ss.