(dp0
cnumpy.core.multiarray
scalar
p1
(cnumpy
dtype
p2
(S'i8'
p3
I0
I1
tp4
Rp5
(I3
S'<'
p6
NNNI-1
I-1
I0
tp7
bS'\x00\x00\x00\x00\x00\x00\x00\x00'
p8
tp9
Rp10
(dp11
S'salary'
p12
F201955.0
sS'to_messages'
p13
F2902.0
sS'sent_received_ratio'
p14
F1.3829787234042554
sS'deferral_payments'
p15
F2869717.0
sS'total_payments'
p16
F4484442.0
sS'long_term_incentive'
p17
F304805.0
sS'loan_advances'
p18
F81525000.0
sS'bonus'
p19
F4175000.0
sS'restricted_stock_deferred'
p20
F-126027.0
sS'total_stock_value'
p21
F1729541.0
sS'expenses'
p22
F13868.0
sS'from_poi_to_this_person'
p23
F47.0
sS'exercised_stock_options'
p24
F1729541.0
sS'from_messages'
p25
F2195.0
sS'other'
p26
F152.0
sS'from_this_person_to_poi'
p27
F65.0
sS'poi'
p28
I00
sS'deferred_income'
p29
F-3081055.0
sS'shared_receipt_with_poi'
p30
F1407.0
sS'restricted_stock'
p31
F126027.0
sS'director_fees'
p32
F106164.5
ssg1
(g5
S'\x01\x00\x00\x00\x00\x00\x00\x00'
p33
tp34
Rp35
(dp36
g12
F261844.0
sg13
F1459.5
sg14
F0.20689655172413793
sg15
F178980.0
sg16
F182466.0
sg17
F540751.0
sg18
F81525000.0
sg19
F850000.0
sg20
F-140264.0
sg21
F257817.0
sg22
F3486.0
sg23
F42.0
sg24
F257817.0
sg25
F41.0
sg26
F76547.0
sg27
F13.5
sg28
I00
sg29
F-218320.5
sg30
F1035.0
sg31
F524169.0
sg32
F106164.5
ssg1
(g5
S'\x02\x00\x00\x00\x00\x00\x00\x00'
p37
tp38
Rp39
(dp40
g12
F477.0
sg13
F566.0
sg14
F0.0
sg15
F209376.5
sg16
F916197.0
sg17
F540751.0
sg18
F81525000.0
sg19
F850000.0
sg20
F-560222.0
sg21
F5243487.0
sg22
F56301.0
sg23
F39.0
sg24
F4046157.0
sg25
F29.0
sg26
F864523.0
sg27
F0.0
sg28
I00
sg29
F-5104.0
sg30
F465.0
sg31
F1757552.0
sg32
F106164.5
ssg1
(g5
S'\x03\x00\x00\x00\x00\x00\x00\x00'
p41
tp42
Rp43
(dp44
g12
F267102.0
sg13
F1459.5
sg14
F0.20689655172413793
sg15
F1295738.0
sg16
F5634343.0
sg17
F1586055.0
sg18
F81525000.0
sg19
F1200000.0
sg20
F-140264.0
sg21
F10623258.0
sg22
F11200.0
sg23
F42.0
sg24
F6680544.0
sg25
F41.0
sg26
F2660303.0
sg27
F13.5
sg28
I00
sg29
F-1386055.0
sg30
F1035.0
sg31
F3942714.0
sg32
F106164.5
ssg1
(g5
S'\x04\x00\x00\x00\x00\x00\x00\x00'
p45
tp46
Rp47
(dp48
g12
F239671.0
sg13
F1459.5
sg14
F0.20689655172413793
sg15
F260455.0
sg16
F827696.0
sg17
F540751.0
sg18
F81525000.0
sg19
F400000.0
sg20
F-82782.0
sg21
F63014.0
sg22
F129142.0
sg23
F42.0
sg24
F1465734.0
sg25
F41.0
sg26
F69.0
sg27
F13.5
sg28
I00
sg29
F-201641.0
sg30
F1035.0
sg31
F145796.0
sg32
F106164.5
ssg1
(g5
S'\x05\x00\x00\x00\x00\x00\x00\x00'
p49
tp50
Rp51
(dp52
g12
F80818.0
sg13
F1459.5
sg14
F0.20689655172413793
sg15
F684694.0
sg16
F860136.0
sg17
F93750.0
sg18
F81525000.0
sg19
F850000.0
sg20
F-140264.0
sg21
F1599641.0
sg22
F46950.0
sg23
F42.0
sg24
F1599641.0
sg25
F41.0
sg26
F874.0
sg27
F13.5
sg28
I00
sg29
F-218320.5
sg30
F1035.0
sg31
F524169.0
sg32
F106164.5
ssg1
(g5
S'\x06\x00\x00\x00\x00\x00\x00\x00'
p53
tp54
Rp55
(dp56
g12
F231330.0
sg13
F7315.0
sg14
F2.6805555555555554
sg15
F209376.5
sg16
F969068.0
sg17
F540751.0
sg18
F81525000.0
sg19
F700000.0
sg20
F-140264.0
sg21
F126027.0
sg22
F37172.0
sg23
F144.0
sg24
F1465734.0
sg25
F4343.0
sg26
F566.0
sg27
F386.0
sg28
I00
sg29
F-218320.5
sg30
F2639.0
sg31
F126027.0
sg32
F106164.5
ssg1
(g5
S'\x07\x00\x00\x00\x00\x00\x00\x00'
p57
tp58
Rp59
(dp60
g12
F213999.0
sg13
F7991.0
sg14
F0.47368421052631576
sg15
F2144013.0
sg16
F5501630.0
sg17
F540751.0
sg18
F81525000.0
sg19
F5249999.0
sg20
F-140264.0
sg21
F1110705.0
sg22
F17355.0
sg23
F228.0
sg24
F953136.0
sg25
F484.0
sg26
F210698.0
sg27
F108.0
sg28
I01
sg29
F-2334434.0
sg30
F5521.0
sg31
F157569.0
sg32
F106164.5
ssg1
(g5
S'\x08\x00\x00\x00\x00\x00\x00\x00'
p61
tp62
Rp63
(dp64
g12
F261844.0
sg13
F1459.5
sg14
F0.20689655172413793
sg15
F-102500.0
sg16
F102500.0
sg17
F540751.0
sg18
F81525000.0
sg19
F850000.0
sg20
F44093.0
sg21
F-44093.0
sg22
F46950.0
sg23
F42.0
sg24
F3285.0
sg25
F41.0
sg26
F76547.0
sg27
F13.5
sg28
I00
sg29
F-218320.5
sg30
F1035.0
sg31
F524169.0
sg32
F3285.0
ssg1
(g5
S'\t\x00\x00\x00\x00\x00\x00\x00'
p65
tp66
Rp67
(dp68
g12
F216582.0
sg13
F1459.5
sg14
F0.20689655172413793
sg15
F209376.5
sg16
F228474.0
sg17
F540751.0
sg18
F81525000.0
sg19
F850000.0
sg20
F-140264.0
sg21
F2493616.0
sg22
F11892.0
sg23
F42.0
sg24
F1624396.0
sg25
F41.0
sg26
F76547.0
sg27
F13.5
sg28
I00
sg29
F-218320.5
sg30
F1035.0
sg31
F869220.0
sg32
F106164.5
ssg1
(g5
S'\n\x00\x00\x00\x00\x00\x00\x00'
p69
tp70
Rp71
(dp72
g12
F187922.0
sg13
F383.0
sg14
F0.0
sg15
F209376.5
sg16
F618850.0
sg17
F180250.0
sg18
F81525000.0
sg19
F250000.0
sg20
F-140264.0
sg21
F659249.0
sg22
F59175.0
sg23
F4.0
sg24
F1465734.0
sg25
F59.0
sg26
F427316.0
sg27
F0.0
sg28
I00
sg29
F-485813.0
sg30
F233.0
sg31
F659249.0
sg32
F106164.5
ssg1
(g5
S'\x0b\x00\x00\x00\x00\x00\x00\x00'
p73
tp74
Rp75
(dp76
g12
F261844.0
sg13
F523.0
sg14
F0.0
sg15
F209376.5
sg16
F15456290.0
sg17
F540751.0
sg18
F81525000.0
sg19
F850000.0
sg20
F15456290.0
sg21
F1599641.0
sg22
F46950.0
sg23
F0.0
sg24
F2604490.0
sg25
F29.0
sg26
F137864.0
sg27
F1.0
sg28
I00
sg29
F-218320.5
sg30
F463.0
sg31
F-2604490.0
sg32
F137864.0
ssg1
(g5
S'\x0c\x00\x00\x00\x00\x00\x00\x00'
p77
tp78
Rp79
(dp80
g12
F213625.0
sg13
F1607.0
sg14
F0.34782608695652173
sg15
F209376.5
sg16
F2047593.0
sg17
F369721.0
sg18
F81525000.0
sg19
F1000000.0
sg20
F-140264.0
sg21
F1843816.0
sg22
F38559.0
sg23
F23.0
sg24
F1465734.0
sg25
F40.0
sg26
F425688.0
sg27
F8.0
sg28
I00
sg29
F-218320.5
sg30
F1336.0
sg31
F378082.0
sg32
F106164.5
ssg1
(g5
S'\r\x00\x00\x00\x00\x00\x00\x00'
p81
tp82
Rp83
(dp84
g12
F248546.0
sg13
F2475.0
sg14
F0.08
sg15
F209376.5
sg16
F2014835.0
sg17
F831809.0
sg18
F81525000.0
sg19
F850000.0
sg20
F-140264.0
sg21
F954354.0
sg22
F84208.0
sg23
F25.0
sg24
F765313.0
sg25
F14.0
sg26
F272.0
sg27
F2.0
sg28
I00
sg29
F-218320.5
sg30
F2326.0
sg31
F189041.0
sg32
F106164.5
ssg1
(g5
S'\x0e\x00\x00\x00\x00\x00\x00\x00'
p85
tp86
Rp87
(dp88
g12
F261844.0
sg13
F1459.5
sg14
F0.20689655172413793
sg15
F209376.5
sg16
F1279.0
sg17
F540751.0
sg18
F81525000.0
sg19
F850000.0
sg20
F-140264.0
sg21
F1599641.0
sg22
F1279.0
sg23
F42.0
sg24
F1465734.0
sg25
F41.0
sg26
F76547.0
sg27
F13.5
sg28
I00
sg29
F-113784.0
sg30
F1035.0
sg31
F524169.0
sg32
F113784.0
ssg1
(g5
S'\x0f\x00\x00\x00\x00\x00\x00\x00'
p89
tp90
Rp91
(dp92
g12
F278601.0
sg13
F1858.0
sg14
F0.10714285714285714
sg15
F209376.5
sg16
F2669589.0
sg17
F974293.0
sg18
F81525000.0
sg19
F1350000.0
sg20
F-140264.0
sg21
F252055.0
sg22
F65907.0
sg23
F140.0
sg24
F1465734.0
sg25
F27.0
sg26
F1621.0
sg27
F15.0
sg28
I01
sg29
F-833.0
sg30
F1593.0
sg31
F252055.0
sg32
F106164.5
ssg1
(g5
S'\x10\x00\x00\x00\x00\x00\x00\x00'
p93
tp94
Rp95
(dp96
g12
F261844.0
sg13
F1486.0
sg14
F0.07692307692307693
sg15
F209376.5
sg16
F49288.0
sg17
F540751.0
sg18
F81525000.0
sg19
F850000.0
sg20
F-140264.0
sg21
F1599641.0
sg22
F49288.0
sg23
F13.0
sg24
F1465734.0
sg25
F41.0
sg26
F76547.0
sg27
F1.0
sg28
I00
sg29
F-218320.5
sg30
F761.0
sg31
F524169.0
sg32
F106164.5
ssg1
(g5
S'\x11\x00\x00\x00\x00\x00\x00\x00'
p97
tp98
Rp99
(dp100
g12
F248017.0
sg13
F1088.0
sg14
F0.0
sg15
F209376.5
sg16
F1054637.0
sg17
F304805.0
sg18
F81525000.0
sg19
F500000.0
sg20
F-140264.0
sg21
F1014505.0
sg22
F600.0
sg23
F0.0
sg24
F825464.0
sg25
F125.0
sg26
F1215.0
sg27
F0.0
sg28
I00
sg29
F-218320.5
sg30
F23.0
sg31
F189041.0
sg32
F106164.5
ssg1
(g5
S'\x12\x00\x00\x00\x00\x00\x00\x00'
p101
tp102
Rp103
(dp104
g12
F261516.0
sg13
F1459.5
sg14
F0.20689655172413793
sg15
F209376.5
sg16
F1271582.0
sg17
F175000.0
sg18
F81525000.0
sg19
F750000.0
sg20
F-140264.0
sg21
F417619.0
sg22
F9410.0
sg23
F42.0
sg24
F1465734.0
sg25
F41.0
sg26
F150656.0
sg27
F13.5
sg28
I00
sg29
F-75000.0
sg30
F1035.0
sg31
F417619.0
sg32
F106164.5
ssg1
(g5
S'\x13\x00\x00\x00\x00\x00\x00\x00'
p105
tp106
Rp107
(dp108
g12
F330546.0
sg13
F3523.0
sg14
F0.4551282051282051
sg15
F649584.0
sg16
F2355702.0
sg17
F769862.0
sg18
F81525000.0
sg19
F900000.0
sg20
F-140264.0
sg21
F3444470.0
sg22
F46950.0
sg23
F156.0
sg24
F2542813.0
sg25
F1053.0
sg26
F400572.0
sg27
F71.0
sg28
I00
sg29
F-694862.0
sg30
F2333.0
sg31
F901657.0
sg32
F106164.5
ssg1
(g5
S'\x14\x00\x00\x00\x00\x00\x00\x00'
p109
tp110
Rp111
(dp112
g12
F240189.0
sg13
F2598.0
sg14
F0.12562814070351758
sg15
F209376.5
sg16
F1639297.0
sg17
F375304.0
sg18
F81525000.0
sg19
F1250000.0
sg20
F-140264.0
sg21
F126027.0
sg22
F35818.0
sg23
F199.0
sg24
F1465734.0
sg25
F144.0
sg26
F486.0
sg27
F25.0
sg28
I01
sg29
F-262500.0
sg30
F2188.0
sg31
F126027.0
sg32
F106164.5
ssg1
(g5
S'\x15\x00\x00\x00\x00\x00\x00\x00'
p113
tp114
Rp115
(dp116
g12
F261809.0
sg13
F312.0
sg14
F0.2413793103448276
sg15
F209376.5
sg16
F477557.0
sg17
F75000.0
sg18
F81525000.0
sg19
F300000.0
sg20
F-307301.0
sg21
F1599641.0
sg22
F46950.0
sg23
F29.0
sg24
F1465734.0
sg25
F15.0
sg26
F540.0
sg27
F7.0
sg28
I00
sg29
F-159792.0
sg30
F196.0
sg31
F307301.0
sg32
F106164.5
ssg1
(g5
S'\x16\x00\x00\x00\x00\x00\x00\x00'
p117
tp118
Rp119
(dp120
g12
F415189.0
sg13
F1892.0
sg14
F0.20689655172413793
sg15
F209376.5
sg16
F1868758.0
sg17
F350000.0
sg18
F81525000.0
sg19
F1000000.0
sg20
F-140264.0
sg21
F2502063.0
sg22
F30674.0
sg23
F58.0
sg24
F1465734.0
sg25
F49.0
sg26
F307895.0
sg27
F12.0
sg28
I01
sg29
F-235000.0
sg30
F1585.0
sg31
F2502063.0
sg32
F106164.5
ssg1
(g5
S'\x17\x00\x00\x00\x00\x00\x00\x00'
p121
tp122
Rp123
(dp124
g12
F261844.0
sg13
F1459.5
sg14
F0.20689655172413793
sg15
F209376.5
sg16
F1272284.0
sg17
F540751.0
sg18
F81525000.0
sg19
F850000.0
sg20
F-32460.0
sg21
F1599641.0
sg22
F46950.0
sg23
F42.0
sg24
F1465734.0
sg25
F41.0
sg26
F76547.0
sg27
F13.5
sg28
I00
sg29
F-98784.0
sg30
F1035.0
sg31
F32460.0
sg32
F98784.0
ssg1
(g5
S'\x18\x00\x00\x00\x00\x00\x00\x00'
p125
tp126
Rp127
(dp128
g12
F261844.0
sg13
F1459.5
sg14
F0.20689655172413793
sg15
F209376.5
sg16
F1272284.0
sg17
F540751.0
sg18
F81525000.0
sg19
F850000.0
sg20
F-140264.0
sg21
F6077885.0
sg22
F46950.0
sg23
F42.0
sg24
F5127155.0
sg25
F41.0
sg26
F76547.0
sg27
F13.5
sg28
I00
sg29
F-218320.5
sg30
F1035.0
sg31
F950730.0
sg32
F106164.5
ssg1
(g5
S'\x19\x00\x00\x00\x00\x00\x00\x00'
p129
tp130
Rp131
(dp132
g12
F261844.0
sg13
F1459.5
sg14
F0.20689655172413793
sg15
F209376.5
sg16
F1272284.0
sg17
F540751.0
sg18
F81525000.0
sg19
F850000.0
sg20
F-472568.0
sg21
F189518.0
sg22
F46950.0
sg23
F42.0
sg24
F1465734.0
sg25
F41.0
sg26
F76547.0
sg27
F13.5
sg28
I00
sg29
F-218320.5
sg30
F1035.0
sg31
F662086.0
sg32
F106164.5
ssg1
(g5
S'\x1a\x00\x00\x00\x00\x00\x00\x00'
p133
tp134
Rp135
(dp136
g12
F288542.0
sg13
F1758.0
sg14
F0.04583333333333333
sg15
F27610.0
sg16
F1490344.0
sg17
F540751.0
sg18
F81525000.0
sg19
F1200000.0
sg20
F-140264.0
sg21
F698242.0
sg22
F16514.0
sg23
F240.0
sg24
F1465734.0
sg25
F40.0
sg26
F101740.0
sg27
F11.0
sg28
I01
sg29
F-144062.0
sg30
F1132.0
sg31
F698242.0
sg32
F106164.5
ssg1
(g5
S'\x1b\x00\x00\x00\x00\x00\x00\x00'
p137
tp138
Rp139
(dp140
g12
F261844.0
sg13
F764.0
sg14
F0.0
sg15
F209376.5
sg16
F1272284.0
sg17
F540751.0
sg18
F81525000.0
sg19
F850000.0
sg20
F-140264.0
sg21
F1038185.0
sg22
F46950.0
sg23
F10.0
sg24
F651850.0
sg25
F12.0
sg26
F76547.0
sg27
F0.0
sg28
I00
sg29
F-218320.5
sg30
F58.0
sg31
F386335.0
sg32
F106164.5
ssg1
(g5
S'\x1c\x00\x00\x00\x00\x00\x00\x00'
p141
tp142
Rp143
(dp144
g12
F314288.0
sg13
F102.0
sg14
F0.0
sg15
F209376.5
sg16
F1101393.0
sg17
F540751.0
sg18
F81525000.0
sg19
F800000.0
sg20
F-140264.0
sg21
F495633.0
sg22
F27861.0
sg23
F0.0
sg24
F117551.0
sg25
F33.0
sg26
F494.0
sg27
F4.0
sg28
I00
sg29
F-41250.0
sg30
F71.0
sg31
F378082.0
sg32
F106164.5
ssg1
(g5
S'\x1d\x00\x00\x00\x00\x00\x00\x00'
p145
tp146
Rp147
(dp148
g12
F184899.0
sg13
F1459.5
sg14
F0.20689655172413793
sg15
F209376.5
sg16
F807956.0
sg17
F275000.0
sg18
F81525000.0
sg19
F325000.0
sg20
F-140264.0
sg21
F207940.0
sg22
F22344.0
sg23
F42.0
sg24
F1465734.0
sg25
F41.0
sg26
F713.0
sg27
F13.5
sg28
I00
sg29
F-218320.5
sg30
F1035.0
sg31
F207940.0
sg32
F106164.5
ssg1
(g5
S'\x1e\x00\x00\x00\x00\x00\x00\x00'
p149
tp150
Rp151
(dp152
g12
F206121.0
sg13
F714.0
sg14
F0.034782608695652174
sg15
F209376.5
sg16
F1208649.0
sg17
F335349.0
sg18
F81525000.0
sg19
F600000.0
sg20
F-140264.0
sg21
F159211.0
sg22
F41626.0
sg23
F115.0
sg24
F17378.0
sg25
F74.0
sg26
F25553.0
sg27
F4.0
sg28
I00
sg29
F-218320.5
sg30
F552.0
sg31
F141833.0
sg32
F106164.5
ssg1
(g5
S'\x1f\x00\x00\x00\x00\x00\x00\x00'
p153
tp154
Rp155
(dp156
g12
F365163.0
sg13
F3093.0
sg14
F9.227272727272727
sg15
F209376.5
sg16
F4747979.0
sg17
F1294981.0
sg18
F81525000.0
sg19
F3000000.0
sg20
F-140264.0
sg21
F3614261.0
sg22
F86174.0
sg23
F66.0
sg24
F2291113.0
sg25
F3069.0
sg26
F1661.0
sg27
F609.0
sg28
I01
sg29
F-218320.5
sg30
F2097.0
sg31
F1323148.0
sg32
F106164.5
ssg1
(g5
S' \x00\x00\x00\x00\x00\x00\x00'
p157
tp158
Rp159
(dp160
g12
F492375.0
sg13
F2181.0
sg14
F0.3125
sg15
F209376.5
sg16
F550981.0
sg17
F484000.0
sg18
F81525000.0
sg19
F800000.0
sg20
F-1787380.0
sg21
F8831913.0
sg22
F51124.0
sg23
F64.0
sg24
F8831913.0
sg25
F909.0
sg26
F7482.0
sg27
F20.0
sg28
I00
sg29
F-1284000.0
sg30
F1401.0
sg31
F1787380.0
sg32
F106164.5
ssg1
(g5
S'!\x00\x00\x00\x00\x00\x00\x00'
p161
tp162
Rp163
(dp164
g12
F210500.0
sg13
F1459.5
sg14
F0.20689655172413793
sg15
F875307.0
sg16
F1204583.0
sg17
F415657.0
sg18
F81525000.0
sg19
F425000.0
sg20
F-315068.0
sg21
F2027865.0
sg22
F52255.0
sg23
F42.0
sg24
F2027865.0
sg25
F41.0
sg26
F1105.0
sg27
F13.5
sg28
I00
sg29
F-775241.0
sg30
F1035.0
sg31
F315068.0
sg32
F106164.5
ssg1
(g5
S'"\x00\x00\x00\x00\x00\x00\x00'
p165
tp166
Rp167
(dp168
g12
F250100.0
sg13
F2572.0
sg14
F0.04590163934426229
sg15
F209376.5
sg16
F1410464.0
sg17
F556416.0
sg18
F81525000.0
sg19
F600000.0
sg20
F-140264.0
sg21
F1865087.0
sg22
F3475.0
sg23
F305.0
sg24
F1550019.0
sg25
F63.0
sg26
F473.0
sg27
F14.0
sg28
I00
sg29
F-218320.5
sg30
F1902.0
sg31
F315068.0
sg32
F106164.5
ssg1
(g5
S'#\x00\x00\x00\x00\x00\x00\x00'
p169
tp170
Rp171
(dp172
g12
F262788.0
sg13
F1459.5
sg14
F0.20689655172413793
sg15
F209376.5
sg16
F2368151.0
sg17
F694862.0
sg18
F81525000.0
sg19
F1000000.0
sg20
F-140264.0
sg21
F8317782.0
sg22
F35812.0
sg23
F42.0
sg24
F8191755.0
sg25
F41.0
sg26
F374689.0
sg27
F13.5
sg28
I00
sg29
F-218320.5
sg30
F1035.0
sg31
F126027.0
sg32
F106164.5
ssg1
(g5
S'$\x00\x00\x00\x00\x00\x00\x00'
p173
tp174
Rp175
(dp176
g12
F221003.0
sg13
F176.0
sg14
F0.3
sg15
F209376.5
sg16
F319941.0
sg17
F540751.0
sg18
F81525000.0
sg19
F70000.0
sg20
F-140264.0
sg21
F1599641.0
sg22
F28164.0
sg23
F10.0
sg24
F1465734.0
sg25
F14.0
sg26
F774.0
sg27
F3.0
sg28
I00
sg29
F-218320.5
sg30
F114.0
sg31
F524169.0
sg32
F106164.5
ssg1
(g5
S'%\x00\x00\x00\x00\x00\x00\x00'
p177
tp178
Rp179
(dp180
g12
F278601.0
sg13
F865.0
sg14
F0.05851063829787234
sg15
F209376.5
sg16
F875760.0
sg17
F540751.0
sg18
F81525000.0
sg19
F800000.0
sg20
F-140264.0
sg21
F1080988.0
sg22
F96268.0
sg23
F188.0
sg24
F765920.0
sg25
F22.0
sg26
F891.0
sg27
F11.0
sg28
I00
sg29
F-300000.0
sg30
F772.0
sg31
F315068.0
sg32
F106164.5
ssg1
(g5
S'&\x00\x00\x00\x00\x00\x00\x00'
p181
tp182
Rp183
(dp184
g12
F261844.0
sg13
F1459.5
sg14
F0.20689655172413793
sg15
F209376.5
sg16
F77492.0
sg17
F540751.0
sg18
F81525000.0
sg19
F850000.0
sg20
F-140264.0
sg21
F371750.0
sg22
F46950.0
sg23
F42.0
sg24
F371750.0
sg25
F41.0
sg26
F76547.0
sg27
F13.5
sg28
I00
sg29
F-25000.0
sg30
F1035.0
sg31
F524169.0
sg32
F102492.0
ssg1
(g5
S"'\x00\x00\x00\x00\x00\x00\x00"
p185
tp186
Rp187
(dp188
g12
F210692.0
sg13
F904.0
sg14
F0.02830188679245283
sg15
F209376.5
sg16
F2093263.0
sg17
F1105218.0
sg18
F81525000.0
sg19
F750000.0
sg20
F-140264.0
sg21
F1640910.0
sg22
F25785.0
sg23
F106.0
sg24
F1451869.0
sg25
F12.0
sg26
F1568.0
sg27
F3.0
sg28
I00
sg29
F-218320.5
sg30
F599.0
sg31
F189041.0
sg32
F106164.5
ssg1
(g5
S'(\x00\x00\x00\x00\x00\x00\x00'
p189
tp190
Rp191
(dp192
g12
F182245.0
sg13
F1459.5
sg14
F0.20689655172413793
sg15
F209376.5
sg16
F2692324.0
sg17
F2234774.0
sg18
F81525000.0
sg19
F200000.0
sg20
F-140264.0
sg21
F1008941.0
sg22
F21530.0
sg23
F42.0
sg24
F601438.0
sg25
F41.0
sg26
F53775.0
sg27
F13.5
sg28
I00
sg29
F-218320.5
sg30
F1035.0
sg31
F407503.0
sg32
F106164.5
ssg1
(g5
S')\x00\x00\x00\x00\x00\x00\x00'
p193
tp194
Rp195
(dp196
g12
F170941.0
sg13
F1459.5
sg14
F0.20689655172413793
sg15
F209376.5
sg16
F211725.0
sg17
F540751.0
sg18
F81525000.0
sg19
F350000.0
sg20
F-140264.0
sg21
F6678735.0
sg22
F78552.0
sg23
F42.0
sg24
F4890344.0
sg25
F41.0
sg26
F12961.0
sg27
F13.5
sg28
I00
sg29
F-400729.0
sg30
F1035.0
sg31
F1788391.0
sg32
F106164.5
ssg1
(g5
S'*\x00\x00\x00\x00\x00\x00\x00'
p197
tp198
Rp199
(dp200
g12
F304588.0
sg13
F1755.0
sg14
F0.8809523809523809
sg15
F209376.5
sg16
F3676340.0
sg17
F374347.0
sg18
F81525000.0
sg19
F2500000.0
sg20
F-140264.0
sg21
F2332399.0
sg22
F95924.0
sg23
F42.0
sg24
F940257.0
sg25
F75.0
sg26
F401481.0
sg27
F37.0
sg28
I00
sg29
F-218320.5
sg30
F1604.0
sg31
F1392142.0
sg32
F106164.5
ssg1
(g5
S'+\x00\x00\x00\x00\x00\x00\x00'
p201
tp202
Rp203
(dp204
g12
F440698.0
sg13
F1459.5
sg14
F0.20689655172413793
sg15
F209376.5
sg16
F2424083.0
sg17
F1736055.0
sg18
F81525000.0
sg19
F1300000.0
sg20
F-140264.0
sg21
F1794412.0
sg22
F55921.0
sg23
F42.0
sg24
F1465734.0
sg25
F41.0
sg26
F277464.0
sg27
F13.5
sg28
I01
sg29
F-1386055.0
sg30
F1035.0
sg31
F1794412.0
sg32
F106164.5
ssg1
(g5
S',\x00\x00\x00\x00\x00\x00\x00'
p205
tp206
Rp207
(dp208
g12
F199157.0
sg13
F936.0
sg14
F8.0
sg15
F209376.5
sg16
F1414857.0
sg17
F556416.0
sg18
F81525000.0
sg19
F350000.0
sg20
F-140264.0
sg21
F1621236.0
sg22
F23870.0
sg23
F1.0
sg24
F664461.0
sg25
F16.0
sg26
F285414.0
sg27
F8.0
sg28
I00
sg29
F-218320.5
sg30
F723.0
sg31
F956775.0
sg32
F106164.5
ssg1
(g5
S'-\x00\x00\x00\x00\x00\x00\x00'
p209
tp210
Rp211
(dp212
g12
F261844.0
sg13
F517.0
sg14
F0.0
sg15
F209376.5
sg16
F1272284.0
sg17
F540751.0
sg18
F81525000.0
sg19
F850000.0
sg20
F-140264.0
sg21
F1884748.0
sg22
F46950.0
sg23
F0.0
sg24
F1324578.0
sg25
F36.0
sg26
F76547.0
sg27
F0.0
sg28
I00
sg29
F-218320.5
sg30
F10.0
sg31
F560170.0
sg32
F106164.5
ssg1
(g5
S'.\x00\x00\x00\x00\x00\x00\x00'
p213
tp214
Rp215
(dp216
g12
F261844.0
sg13
F57.0
sg14
F0.0
sg15
F181755.0
sg16
F181755.0
sg17
F540751.0
sg18
F81525000.0
sg19
F850000.0
sg20
F-140264.0
sg21
F343434.0
sg22
F46950.0
sg23
F0.0
sg24
F343434.0
sg25
F13.0
sg26
F76547.0
sg27
F0.0
sg28
I00
sg29
F-218320.5
sg30
F2.0
sg31
F524169.0
sg32
F106164.5
ssg1
(g5
S'/\x00\x00\x00\x00\x00\x00\x00'
p217
tp218
Rp219
(dp220
g12
F1060932.0
sg13
F3275.0
sg14
F0.024793388429752067
sg15
F6426990.0
sg16
F17252530.0
sg17
F1617011.0
sg18
F2000000.0
sg19
F2000000.0
sg20
F-140264.0
sg21
F14622185.0
sg22
F86987.0
sg23
F242.0
sg24
F10433518.0
sg25
F21.0
sg26
F7427621.0
sg27
F6.0
sg28
I00
sg29
F-3367011.0
sg30
F2979.0
sg31
F4188667.0
sg32
F106164.5
ssg1
(g5
S'0\x00\x00\x00\x00\x00\x00\x00'
p221
tp222
Rp223
(dp224
g12
F261844.0
sg13
F1459.5
sg14
F0.20689655172413793
sg15
F50591.0
sg16
F50591.0
sg17
F540751.0
sg18
F81525000.0
sg19
F850000.0
sg20
F-140264.0
sg21
F176378.0
sg22
F46950.0
sg23
F42.0
sg24
F176378.0
sg25
F41.0
sg26
F76547.0
sg27
F13.5
sg28
I00
sg29
F-218320.5
sg30
F1035.0
sg31
F524169.0
sg32
F106164.5
ssg1
(g5
S'1\x00\x00\x00\x00\x00\x00\x00'
p225
tp226
Rp227
(dp228
g12
F192008.0
sg13
F1459.5
sg14
F0.20689655172413793
sg15
F73122.0
sg16
F900585.0
sg17
F540751.0
sg18
F81525000.0
sg19
F509870.0
sg20
F-140264.0
sg21
F318607.0
sg22
F50080.0
sg23
F42.0
sg24
F83237.0
sg25
F41.0
sg26
F76547.0
sg27
F13.5
sg28
I00
sg29
F-1042.0
sg30
F1035.0
sg31
F235370.0
sg32
F106164.5
ssg1
(g5
S'2\x00\x00\x00\x00\x00\x00\x00'
p229
tp230
Rp231
(dp232
g12
F231946.0
sg13
F209.0
sg14
F2.7
sg15
F209376.5
sg16
F1566469.0
sg17
F375304.0
sg18
F81525000.0
sg19
F850000.0
sg20
F-140264.0
sg21
F896153.0
sg22
F48405.0
sg23
F10.0
sg24
F636246.0
sg25
F44.0
sg26
F60814.0
sg27
F27.0
sg28
I00
sg29
F-218320.5
sg30
F178.0
sg31
F259907.0
sg32
F106164.5
ssg1
(g5
S'3\x00\x00\x00\x00\x00\x00\x00'
p233
tp234
Rp235
(dp236
g12
F261844.0
sg13
F1459.5
sg14
F0.20689655172413793
sg15
F209376.5
sg16
F1272284.0
sg17
F540751.0
sg18
F81525000.0
sg19
F850000.0
sg20
F-72419.0
sg21
F1945360.0
sg22
F46950.0
sg23
F42.0
sg24
F1753766.0
sg25
F41.0
sg26
F76547.0
sg27
F13.5
sg28
I00
sg29
F-218320.5
sg30
F1035.0
sg31
F264013.0
sg32
F106164.5
ssg1
(g5
S'4\x00\x00\x00\x00\x00\x00\x00'
p237
tp238
Rp239
(dp240
g12
F261844.0
sg13
F169.0
sg14
F0.0
sg15
F504610.0
sg16
F966522.0
sg17
F461912.0
sg18
F81525000.0
sg19
F850000.0
sg20
F-140264.0
sg21
F2218275.0
sg22
F46950.0
sg23
F0.0
sg24
F2218275.0
sg25
F12.0
sg26
F76547.0
sg27
F0.0
sg28
I00
sg29
F-218320.5
sg30
F23.0
sg31
F524169.0
sg32
F106164.5
ssg1
(g5
S'5\x00\x00\x00\x00\x00\x00\x00'
p241
tp242
Rp243
(dp244
g12
F261844.0
sg13
F1459.5
sg14
F0.20689655172413793
sg15
F209376.5
sg16
F1272284.0
sg17
F540751.0
sg18
F81525000.0
sg19
F850000.0
sg20
F-140264.0
sg21
F85641.0
sg22
F46950.0
sg23
F42.0
sg24
F9803.0
sg25
F41.0
sg26
F76547.0
sg27
F13.5
sg28
I00
sg29
F-218320.5
sg30
F1035.0
sg31
F75838.0
sg32
F106164.5
ssg1
(g5
S'6\x00\x00\x00\x00\x00\x00\x00'
p245
tp246
Rp247
(dp248
g12
F274975.0
sg13
F873.0
sg14
F0.11538461538461539
sg15
F209376.5
sg16
F1272284.0
sg17
F71023.0
sg18
F81525000.0
sg19
F600000.0
sg20
F-140264.0
sg21
F778546.0
sg22
F125978.0
sg23
F52.0
sg24
F384728.0
sg25
F16.0
sg26
F200308.0
sg27
F6.0
sg28
I01
sg29
F-218320.5
sg30
F874.0
sg31
F393818.0
sg32
F106164.5
ssg1
(g5
S'7\x00\x00\x00\x00\x00\x00\x00'
p249
tp250
Rp251
(dp252
g12
F272880.0
sg13
F1459.5
sg14
F0.20689655172413793
sg15
F209376.5
sg16
F2146973.0
sg17
F304805.0
sg18
F81525000.0
sg19
F750000.0
sg20
F-140264.0
sg21
F877611.0
sg22
F46950.0
sg23
F42.0
sg24
F436515.0
sg25
F41.0
sg26
F819288.0
sg27
F13.5
sg28
I00
sg29
F-218320.5
sg30
F1035.0
sg31
F441096.0
sg32
F106164.5
ssg1
(g5
S'8\x00\x00\x00\x00\x00\x00\x00'
p253
tp254
Rp255
(dp256
g12
F261844.0
sg13
F1459.5
sg14
F0.20689655172413793
sg15
F209376.5
sg16
F119292.0
sg17
F540751.0
sg18
F81525000.0
sg19
F850000.0
sg20
F-140264.0
sg21
F1599641.0
sg22
F46950.0
sg23
F42.0
sg24
F1465734.0
sg25
F41.0
sg26
F76547.0
sg27
F13.5
sg28
I00
sg29
F-218320.5
sg30
F1035.0
sg31
F524169.0
sg32
F119292.0
ssg1
(g5
S'9\x00\x00\x00\x00\x00\x00\x00'
p257
tp258
Rp259
(dp260
g12
F6615.0
sg13
F1459.5
sg14
F0.20689655172413793
sg15
F93585.0
sg16
F1146658.0
sg17
F365625.0
sg18
F81525000.0
sg19
F850000.0
sg20
F-140264.0
sg21
F1599641.0
sg22
F46950.0
sg23
F42.0
sg24
F1465734.0
sg25
F41.0
sg26
F680833.0
sg27
F13.5
sg28
I00
sg29
F-218320.5
sg30
F1035.0
sg31
F524169.0
sg32
F106164.5
ssg1
(g5
S':\x00\x00\x00\x00\x00\x00\x00'
p261
tp262
Rp263
(dp264
g12
F374125.0
sg13
F4009.0
sg14
F0.3388888888888889
sg15
F2157527.0
sg16
F3859065.0
sg17
F983346.0
sg18
F81525000.0
sg19
F1150000.0
sg20
F-329825.0
sg21
F803094.0
sg22
F76169.0
sg23
F180.0
sg24
F608750.0
sg25
F1941.0
sg26
F52382.0
sg27
F61.0
sg28
I00
sg29
F-934484.0
sg30
F1847.0
sg31
F524169.0
sg32
F106164.5
ssg1
(g5
S';\x00\x00\x00\x00\x00\x00\x00'
p265
tp266
Rp267
(dp268
g12
F243293.0
sg13
F1045.0
sg14
F0.65625
sg15
F209376.5
sg16
F288682.0
sg17
F1617011.0
sg18
F81525000.0
sg19
F1500000.0
sg20
F-140264.0
sg21
F6391065.0
sg22
F34039.0
sg23
F32.0
sg24
F5538001.0
sg25
F32.0
sg26
F11350.0
sg27
F21.0
sg28
I01
sg29
F-3117011.0
sg30
F1035.0
sg31
F853064.0
sg32
F106164.5
ssg1
(g5
S'<\x00\x00\x00\x00\x00\x00\x00'
p269
tp270
Rp271
(dp272
g12
F261844.0
sg13
F573.0
sg14
F1.75
sg15
F209376.5
sg16
F475.0
sg17
F540751.0
sg18
F81525000.0
sg19
F850000.0
sg20
F-140264.0
sg21
F2217299.0
sg22
F475.0
sg23
F4.0
sg24
F1465734.0
sg25
F19.0
sg26
F76547.0
sg27
F7.0
sg28
I00
sg29
F-218320.5
sg30
F471.0
sg31
F2217299.0
sg32
F106164.5
ssg1
(g5
S'=\x00\x00\x00\x00\x00\x00\x00'
p273
tp274
Rp275
(dp276
g12
F261844.0
sg13
F504.0
sg14
F0.0
sg15
F7961.0
sg16
F7961.0
sg17
F540751.0
sg18
F81525000.0
sg19
F850000.0
sg20
F-140264.0
sg21
F151418.0
sg22
F46950.0
sg23
F16.0
sg24
F1465734.0
sg25
F12.0
sg26
F76547.0
sg27
F0.0
sg28
I00
sg29
F-218320.5
sg30
F50.0
sg31
F151418.0
sg32
F106164.5
ssg1
(g5
S'>\x00\x00\x00\x00\x00\x00\x00'
p277
tp278
Rp279
(dp280
g12
F261844.0
sg13
F2649.0
sg14
F1.0857142857142856
sg15
F209376.5
sg16
F1272284.0
sg17
F540751.0
sg18
F81525000.0
sg19
F850000.0
sg20
F-140264.0
sg21
F346663.0
sg22
F46950.0
sg23
F35.0
sg24
F1465734.0
sg25
F1061.0
sg26
F76547.0
sg27
F38.0
sg28
I00
sg29
F-218320.5
sg30
F571.0
sg31
F346663.0
sg32
F106164.5
ssg1
(g5
S'?\x00\x00\x00\x00\x00\x00\x00'
p281
tp282
Rp283
(dp284
g12
F262663.0
sg13
F1459.5
sg14
F0.20689655172413793
sg15
F209376.5
sg16
F1297461.0
sg17
F150000.0
sg18
F81525000.0
sg19
F700000.0
sg20
F-140264.0
sg21
F668132.0
sg22
F48357.0
sg23
F42.0
sg24
F187500.0
sg25
F41.0
sg26
F416441.0
sg27
F13.5
sg28
I00
sg29
F-280000.0
sg30
F1035.0
sg31
F480632.0
sg32
F106164.5
ssg1
(g5
S'@\x00\x00\x00\x00\x00\x00\x00'
p285
tp286
Rp287
(dp288
g12
F211788.0
sg13
F1320.0
sg14
F0.025
sg15
F209376.5
sg16
F2081796.0
sg17
F69223.0
sg18
F81525000.0
sg19
F1700000.0
sg20
F-140264.0
sg21
F441096.0
sg22
F98849.0
sg23
F40.0
sg24
F1465734.0
sg25
F27.0
sg26
F1936.0
sg27
F1.0
sg28
I00
sg29
F-218320.5
sg30
F900.0
sg31
F441096.0
sg32
F106164.5
ssg1
(g5
S'A\x00\x00\x00\x00\x00\x00\x00'
p289
tp290
Rp291
(dp292
g12
F261844.0
sg13
F1459.5
sg14
F0.20689655172413793
sg15
F10259.0
sg16
F91093.0
sg17
F540751.0
sg18
F81525000.0
sg19
F850000.0
sg20
F-140264.0
sg21
F30766064.0
sg22
F77978.0
sg23
F42.0
sg24
F30766064.0
sg25
F41.0
sg26
F2856.0
sg27
F13.5
sg28
I01
sg29
F-218320.5
sg30
F1035.0
sg31
F524169.0
sg32
F106164.5
ssg1
(g5
S'B\x00\x00\x00\x00\x00\x00\x00'
p293
tp294
Rp295
(dp296
g12
F261844.0
sg13
F2350.0
sg14
F0.3409090909090909
sg15
F3131860.0
sg16
F3131860.0
sg17
F540751.0
sg18
F81525000.0
sg19
F850000.0
sg20
F-140264.0
sg21
F7256648.0
sg22
F46950.0
sg23
F44.0
sg24
F5210569.0
sg25
F1073.0
sg26
F76547.0
sg27
F15.0
sg28
I00
sg29
F-218320.5
sg30
F1074.0
sg31
F2046079.0
sg32
F106164.5
ssg1
(g5
S'C\x00\x00\x00\x00\x00\x00\x00'
p297
tp298
Rp299
(dp300
g12
F261844.0
sg13
F719.0
sg14
F0.14285714285714285
sg15
F209376.5
sg16
F1272284.0
sg17
F540751.0
sg18
F81525000.0
sg19
F850000.0
sg20
F-140264.0
sg21
F1118394.0
sg22
F46950.0
sg23
F35.0
sg24
F754966.0
sg25
F34.0
sg26
F76547.0
sg27
F5.0
sg28
I00
sg29
F-218320.5
sg30
F589.0
sg31
F363428.0
sg32
F106164.5
ssg1
(g5
S'D\x00\x00\x00\x00\x00\x00\x00'
p301
tp302
Rp303
(dp304
g12
F130724.0
sg13
F128.0
sg14
F1.7
sg15
F2964506.0
sg16
F3100224.0
sg17
F540751.0
sg18
F81525000.0
sg19
F850000.0
sg20
F-140264.0
sg21
F2282768.0
sg22
F4994.0
sg23
F10.0
sg24
F2282768.0
sg25
F17.0
sg26
F76547.0
sg27
F17.0
sg28
I00
sg29
F-218320.5
sg30
F119.0
sg31
F524169.0
sg32
F106164.5
ssg1
(g5
S'E\x00\x00\x00\x00\x00\x00\x00'
p305
tp306
Rp307
(dp308
g12
F85274.0
sg13
F496.0
sg14
F0.17857142857142858
sg15
F209376.5
sg16
F1979596.0
sg17
F312500.0
sg18
F81525000.0
sg19
F850000.0
sg20
F-140264.0
sg21
F5819980.0
sg22
F28093.0
sg23
F28.0
sg24
F2165172.0
sg25
F19.0
sg26
F1553729.0
sg27
F5.0
sg28
I00
sg29
F-218320.5
sg30
F437.0
sg31
F3654808.0
sg32
F106164.5
ssg1
(g5
S'F\x00\x00\x00\x00\x00\x00\x00'
p309
tp310
Rp311
(dp312
g12
F288558.0
sg13
F258.0
sg14
F0.76
sg15
F209376.5
sg16
F551174.0
sg17
F540751.0
sg18
F81525000.0
sg19
F250000.0
sg20
F-140264.0
sg21
F725735.0
sg22
F10181.0
sg23
F25.0
sg24
F185063.0
sg25
F56.0
sg26
F2435.0
sg27
F19.0
sg28
I00
sg29
F-218320.5
sg30
F117.0
sg31
F540672.0
sg32
F106164.5
ssg1
(g5
S'G\x00\x00\x00\x00\x00\x00\x00'
p313
tp314
Rp315
(dp316
g12
F261844.0
sg13
F1459.5
sg14
F0.20689655172413793
sg15
F209376.5
sg16
F83750.0
sg17
F540751.0
sg18
F81525000.0
sg19
F850000.0
sg20
F-44093.0
sg21
F431750.0
sg22
F46950.0
sg23
F42.0
sg24
F431750.0
sg25
F41.0
sg26
F76547.0
sg27
F13.5
sg28
I00
sg29
F-25000.0
sg30
F1035.0
sg31
F44093.0
sg32
F108750.0
ssg1
(g5
S'H\x00\x00\x00\x00\x00\x00\x00'
p317
tp318
Rp319
(dp320
g12
F275101.0
sg13
F4607.0
sg14
F4.170731707317073
sg15
F209376.5
sg16
F1086821.0
sg17
F323466.0
sg18
F81525000.0
sg19
F400000.0
sg20
F-140264.0
sg21
F976037.0
sg22
F83585.0
sg23
F41.0
sg24
F850010.0
sg25
F14368.0
sg26
F4669.0
sg27
F171.0
sg28
I00
sg29
F-218320.5
sg30
F583.0
sg31
F126027.0
sg32
F106164.5
ssg1
(g5
S'I\x00\x00\x00\x00\x00\x00\x00'
p321
tp322
Rp323
(dp324
g12
F404338.0
sg13
F12754.0
sg14
F2.7642857142857142
sg15
F209376.5
sg16
F1747522.0
sg17
F300000.0
sg18
F81525000.0
sg19
F1000000.0
sg20
F-140264.0
sg21
F6153642.0
sg22
F41953.0
sg23
F140.0
sg24
F2022048.0
sg25
F6759.0
sg26
F1231.0
sg27
F387.0
sg28
I00
sg29
F-218320.5
sg30
F3639.0
sg31
F4131594.0
sg32
F106164.5
ssg1
(g5
S'J\x00\x00\x00\x00\x00\x00\x00'
p325
tp326
Rp327
(dp328
g12
F174246.0
sg13
F1459.5
sg14
F0.20689655172413793
sg15
F209376.5
sg16
F704896.0
sg17
F540751.0
sg18
F81525000.0
sg19
F850000.0
sg20
F-140264.0
sg21
F1034346.0
sg22
F116335.0
sg23
F42.0
sg24
F1465734.0
sg25
F41.0
sg26
F465357.0
sg27
F13.5
sg28
I00
sg29
F-51042.0
sg30
F1035.0
sg31
F1034346.0
sg32
F106164.5
ssg1
(g5
S'K\x00\x00\x00\x00\x00\x00\x00'
p329
tp330
Rp331
(dp332
g12
F271442.0
sg13
F8305.0
sg14
F0.7729083665338645
sg15
F209376.5
sg16
F3471141.0
sg17
F540751.0
sg18
F81525000.0
sg19
F3100000.0
sg20
F-140264.0
sg21
F547143.0
sg22
F5774.0
sg23
F251.0
sg24
F81042.0
sg25
F1728.0
sg26
F93925.0
sg27
F194.0
sg28
I00
sg29
F-218320.5
sg30
F3669.0
sg31
F466101.0
sg32
F106164.5
ssg1
(g5
S'L\x00\x00\x00\x00\x00\x00\x00'
p333
tp334
Rp335
(dp336
g12
F309946.0
sg13
F2374.0
sg14
F0.2830188679245283
sg15
F209376.5
sg16
F1587421.0
sg17
F300000.0
sg18
F81525000.0
sg19
F700000.0
sg20
F-140264.0
sg21
F1920055.0
sg22
F127017.0
sg23
F53.0
sg24
F671737.0
sg25
F61.0
sg26
F150458.0
sg27
F15.0
sg28
I01
sg29
F-218320.5
sg30
F2271.0
sg31
F1248318.0
sg32
F106164.5
ssg1
(g5
S'M\x00\x00\x00\x00\x00\x00\x00'
p337
tp338
Rp339
(dp340
g12
F224305.0
sg13
F1459.5
sg14
F0.20689655172413793
sg15
F209376.5
sg16
F2652612.0
sg17
F602671.0
sg18
F81525000.0
sg19
F800000.0
sg20
F-140264.0
sg21
F985032.0
sg22
F118134.0
sg23
F42.0
sg24
F1465734.0
sg25
F41.0
sg26
F907502.0
sg27
F13.5
sg28
I01
sg29
F-218320.5
sg30
F1035.0
sg31
F985032.0
sg32
F106164.5
ssg1
(g5
S'N\x00\x00\x00\x00\x00\x00\x00'
p341
tp342
Rp343
(dp344
g12
F339288.0
sg13
F7259.0
sg14
F0.7784090909090909
sg15
F209376.5
sg16
F10425757.0
sg17
F2035380.0
sg18
F81525000.0
sg19
F8000000.0
sg20
F-140264.0
sg21
F5167144.0
sg22
F49537.0
sg23
F528.0
sg24
F4158995.0
sg25
F2585.0
sg26
F1552.0
sg27
F411.0
sg28
I00
sg29
F-218320.5
sg30
F3962.0
sg31
F1008149.0
sg32
F106164.5
ssg1
(g5
S'O\x00\x00\x00\x00\x00\x00\x00'
p345
tp346
Rp347
(dp348
g12
F1072321.0
sg13
F4273.0
sg14
F0.13008130081300814
sg15
F202911.0
sg16
F103559793.0
sg17
F3600000.0
sg18
F81525000.0
sg19
F7000000.0
sg20
F-140264.0
sg21
F49110078.0
sg22
F99832.0
sg23
F123.0
sg24
F34348384.0
sg25
F36.0
sg26
F10359729.0
sg27
F16.0
sg28
I01
sg29
F-300000.0
sg30
F2411.0
sg31
F14761694.0
sg32
F106164.5
ssg1
(g5
S'P\x00\x00\x00\x00\x00\x00\x00'
p349
tp350
Rp351
(dp352
g12
F273746.0
sg13
F2822.0
sg14
F0.208955223880597
sg15
F209376.5
sg16
F2664228.0
sg17
F1387399.0
sg18
F81525000.0
sg19
F1000000.0
sg20
F-140264.0
sg21
F360528.0
sg22
F46950.0
sg23
F67.0
sg24
F1465734.0
sg25
F63.0
sg26
F3083.0
sg27
F14.0
sg28
I00
sg29
F-218320.5
sg30
F2672.0
sg31
F360528.0
sg32
F106164.5
ssg1
(g5
S'Q\x00\x00\x00\x00\x00\x00\x00'
p353
tp354
Rp355
(dp356
g12
F261844.0
sg13
F1459.5
sg14
F0.20689655172413793
sg15
F209376.5
sg16
F87492.0
sg17
F540751.0
sg18
F81525000.0
sg19
F850000.0
sg20
F-140264.0
sg21
F412878.0
sg22
F46950.0
sg23
F42.0
sg24
F412878.0
sg25
F41.0
sg26
F76547.0
sg27
F13.5
sg28
I00
sg29
F-25000.0
sg30
F1035.0
sg31
F524169.0
sg32
F112492.0
ssg1
(g5
S'R\x00\x00\x00\x00\x00\x00\x00'
p357
tp358
Rp359
(dp360
g12
F261844.0
sg13
F952.0
sg14
F0.0
sg15
F209376.5
sg16
F1272284.0
sg17
F540751.0
sg18
F81525000.0
sg19
F850000.0
sg20
F-140264.0
sg21
F850477.0
sg22
F46950.0
sg23
F10.0
sg24
F850477.0
sg25
F26.0
sg26
F76547.0
sg27
F0.0
sg28
I00
sg29
F-218320.5
sg30
F739.0
sg31
F524169.0
sg32
F106164.5
ssg1
(g5
S'S\x00\x00\x00\x00\x00\x00\x00'
p361
tp362
Rp363
(dp364
g12
F236457.0
sg13
F1459.5
sg14
F0.20689655172413793
sg15
F204075.0
sg16
F875889.0
sg17
F175000.0
sg18
F81525000.0
sg19
F200000.0
sg20
F-140264.0
sg21
F3064208.0
sg22
F57727.0
sg23
F42.0
sg24
F2549361.0
sg25
F41.0
sg26
F2630.0
sg27
F13.5
sg28
I00
sg29
F-218320.5
sg30
F1035.0
sg31
F514847.0
sg32
F106164.5
ssg1
(g5
S'T\x00\x00\x00\x00\x00\x00\x00'
p365
tp366
Rp367
(dp368
g12
F261844.0
sg13
F1459.5
sg14
F0.20689655172413793
sg15
F209376.5
sg16
F1272284.0
sg17
F540751.0
sg18
F81525000.0
sg19
F850000.0
sg20
F-140264.0
sg21
F1599641.0
sg22
F46950.0
sg23
F42.0
sg24
F1465734.0
sg25
F41.0
sg26
F76547.0
sg27
F13.5
sg28
I00
sg29
F-218320.5
sg30
F1035.0
sg31
F524169.0
sg32
F106164.5
ssg1
(g5
S'U\x00\x00\x00\x00\x00\x00\x00'
p369
tp370
Rp371
(dp372
g12
F261844.0
sg13
F1459.5
sg14
F0.20689655172413793
sg15
F209376.5
sg16
F1272284.0
sg17
F540751.0
sg18
F81525000.0
sg19
F850000.0
sg20
F-153686.0
sg21
F372205.0
sg22
F46950.0
sg23
F42.0
sg24
F372205.0
sg25
F41.0
sg26
F76547.0
sg27
F13.5
sg28
I00
sg29
F-218320.5
sg30
F1035.0
sg31
F153686.0
sg32
F106164.5
ssg1
(g5
S'V\x00\x00\x00\x00\x00\x00\x00'
p373
tp374
Rp375
(dp376
g12
F349487.0
sg13
F1522.0
sg14
F0.0
sg15
F85430.0
sg16
F8407016.0
sg17
F5145434.0
sg18
F81525000.0
sg19
F850000.0
sg20
F-140264.0
sg21
F2070306.0
sg22
F8211.0
sg23
F8.0
sg24
F2070306.0
sg25
F230.0
sg26
F2818454.0
sg27
F0.0
sg28
I00
sg29
F-218320.5
sg30
F477.0
sg31
F524169.0
sg32
F106164.5
ssg1
(g5
S'W\x00\x00\x00\x00\x00\x00\x00'
p377
tp378
Rp379
(dp380
g12
F261844.0
sg13
F1433.0
sg14
F0.08
sg15
F209376.5
sg16
F1272284.0
sg17
F540751.0
sg18
F81525000.0
sg19
F850000.0
sg20
F-140264.0
sg21
F758931.0
sg22
F46950.0
sg23
F25.0
sg24
F664375.0
sg25
F215.0
sg26
F76547.0
sg27
F2.0
sg28
I00
sg29
F-218320.5
sg30
F508.0
sg31
F94556.0
sg32
F106164.5
ssg1
(g5
S'X\x00\x00\x00\x00\x00\x00\x00'
p381
tp382
Rp383
(dp384
g12
F263413.0
sg13
F1744.0
sg14
F0.0
sg15
F209376.5
sg16
F1318763.0
sg17
F540751.0
sg18
F81525000.0
sg19
F900000.0
sg20
F-140264.0
sg21
F947861.0
sg22
F228763.0
sg23
F52.0
sg24
F506765.0
sg25
F49.0
sg26
F51587.0
sg27
F0.0
sg28
I00
sg29
F-125000.0
sg30
F1469.0
sg31
F441096.0
sg32
F106164.5
ssg1
(g5
S'Y\x00\x00\x00\x00\x00\x00\x00'
p385
tp386
Rp387
(dp388
g12
F365038.0
sg13
F3329.0
sg14
F2.108695652173913
sg15
F209376.5
sg16
F2101364.0
sg17
F554422.0
sg18
F81525000.0
sg19
F1100000.0
sg20
F-140264.0
sg21
F3101279.0
sg22
F81364.0
sg23
F92.0
sg24
F1623010.0
sg25
F2742.0
sg26
F540.0
sg27
F194.0
sg28
I00
sg29
F-218320.5
sg30
F2189.0
sg31
F1478269.0
sg32
F106164.5
ssg1
(g5
S'Z\x00\x00\x00\x00\x00\x00\x00'
p389
tp390
Rp391
(dp392
g12
F261844.0
sg13
F894.0
sg14
F0.018518518518518517
sg15
F209376.5
sg16
F1272284.0
sg17
F540751.0
sg18
F81525000.0
sg19
F850000.0
sg20
F-140264.0
sg21
F1691366.0
sg22
F46950.0
sg23
F54.0
sg24
F757301.0
sg25
F13.0
sg26
F76547.0
sg27
F1.0
sg28
I00
sg29
F-218320.5
sg30
F720.0
sg31
F934065.0
sg32
F106164.5
ssg1
(g5
S'[\x00\x00\x00\x00\x00\x00\x00'
p393
tp394
Rp395
(dp396
g12
F370448.0
sg13
F2355.0
sg14
F0.4482758620689655
sg15
F209376.5
sg16
F4099771.0
sg17
F694862.0
sg18
F81525000.0
sg19
F2600000.0
sg20
F-140264.0
sg21
F1662855.0
sg22
F137108.0
sg23
F58.0
sg24
F1104054.0
sg25
F48.0
sg26
F297353.0
sg27
F26.0
sg28
I00
sg29
F-218320.5
sg30
F2228.0
sg31
F558801.0
sg32
F106164.5
ssg1
(g5
S'\\\x00\x00\x00\x00\x00\x00\x00'
p397
tp398
Rp399
(dp400
g12
F261844.0
sg13
F1459.5
sg14
F0.20689655172413793
sg15
F209376.5
sg16
F148.0
sg17
F540751.0
sg18
F81525000.0
sg19
F850000.0
sg20
F-140264.0
sg21
F1599641.0
sg22
F148.0
sg23
F42.0
sg24
F1465734.0
sg25
F41.0
sg26
F76547.0
sg27
F13.5
sg28
I00
sg29
F-103750.0
sg30
F1035.0
sg31
F524169.0
sg32
F103750.0
ssg1
(g5
S']\x00\x00\x00\x00\x00\x00\x00'
p401
tp402
Rp403
(dp404
g12
F365788.0
sg13
F807.0
sg14
F0.02631578947368421
sg15
F209376.5
sg16
F1061827.0
sg17
F540751.0
sg18
F81525000.0
sg19
F600000.0
sg20
F-140264.0
sg21
F585062.0
sg22
F94299.0
sg23
F38.0
sg24
F1465734.0
sg25
F29.0
sg26
F1740.0
sg27
F1.0
sg28
I00
sg29
F-218320.5
sg30
F702.0
sg31
F585062.0
sg32
F106164.5
ssg1
(g5
S'^\x00\x00\x00\x00\x00\x00\x00'
p405
tp406
Rp407
(dp408
g12
F261844.0
sg13
F1459.5
sg14
F0.20689655172413793
sg15
F209376.5
sg16
F2151.0
sg17
F540751.0
sg18
F81525000.0
sg19
F850000.0
sg20
F-140264.0
sg21
F1599641.0
sg22
F2151.0
sg23
F42.0
sg24
F1465734.0
sg25
F41.0
sg26
F76547.0
sg27
F13.5
sg28
I00
sg29
F-38346.0
sg30
F1035.0
sg31
F524169.0
sg32
F38346.0
ssg1
(g5
S'_\x00\x00\x00\x00\x00\x00\x00'
p409
tp410
Rp411
(dp412
g12
F261844.0
sg13
F232.0
sg14
F0.0
sg15
F1848227.0
sg16
F1848227.0
sg17
F540751.0
sg18
F81525000.0
sg19
F850000.0
sg20
F-140264.0
sg21
F955873.0
sg22
F46950.0
sg23
F0.0
sg24
F493489.0
sg25
F28.0
sg26
F76547.0
sg27
F0.0
sg28
I00
sg29
F-218320.5
sg30
F22.0
sg31
F462384.0
sg32
F106164.5
ssg1
(g5
S'`\x00\x00\x00\x00\x00\x00\x00'
p413
tp414
Rp415
(dp416
g12
F261844.0
sg13
F672.0
sg14
F0.0
sg15
F209376.5
sg16
F1272284.0
sg17
F540751.0
sg18
F81525000.0
sg19
F850000.0
sg20
F-140264.0
sg21
F221141.0
sg22
F46950.0
sg23
F0.0
sg24
F59539.0
sg25
F19.0
sg26
F76547.0
sg27
F0.0
sg28
I00
sg29
F-218320.5
sg30
F127.0
sg31
F161602.0
sg32
F106164.5
ssg1
(g5
S'a\x00\x00\x00\x00\x00\x00\x00'
p417
tp418
Rp419
(dp420
g12
F267093.0
sg13
F1459.5
sg14
F0.20689655172413793
sg15
F209376.5
sg16
F628522.0
sg17
F540751.0
sg18
F81525000.0
sg19
F325000.0
sg20
F-140264.0
sg21
F208510.0
sg22
F35018.0
sg23
F42.0
sg24
F1465734.0
sg25
F41.0
sg26
F1411.0
sg27
F13.5
sg28
I00
sg29
F-218320.5
sg30
F1035.0
sg31
F208510.0
sg32
F106164.5
ssg1
(g5
S'b\x00\x00\x00\x00\x00\x00\x00'
p421
tp422
Rp423
(dp424
g12
F251654.0
sg13
F136.0
sg14
F0.0
sg15
F842924.0
sg16
F3202070.0
sg17
F1725545.0
sg18
F81525000.0
sg19
F1100000.0
sg20
F-140264.0
sg21
F1416848.0
sg22
F46950.0
sg23
F12.0
sg24
F1056320.0
sg25
F16.0
sg26
F947.0
sg27
F0.0
sg28
I00
sg29
F-719000.0
sg30
F114.0
sg31
F360528.0
sg32
F106164.5
ssg1
(g5
S'c\x00\x00\x00\x00\x00\x00\x00'
p425
tp426
Rp427
(dp428
g12
F229284.0
sg13
F2192.0
sg14
F0.18181818181818182
sg15
F209376.5
sg16
F812194.0
sg17
F125000.0
sg18
F81525000.0
sg19
F400000.0
sg20
F-140264.0
sg21
F597461.0
sg22
F57580.0
sg23
F11.0
sg24
F400478.0
sg25
F45.0
sg26
F330.0
sg27
F2.0
sg28
I00
sg29
F-218320.5
sg30
F395.0
sg31
F196983.0
sg32
F106164.5
ssg1
(g5
S'd\x00\x00\x00\x00\x00\x00\x00'
p429
tp430
Rp431
(dp432
g12
F261844.0
sg13
F1459.5
sg14
F0.20689655172413793
sg15
F774401.0
sg16
F774401.0
sg17
F540751.0
sg18
F81525000.0
sg19
F850000.0
sg20
F-94556.0
sg21
F368705.0
sg22
F46950.0
sg23
F42.0
sg24
F1465734.0
sg25
F41.0
sg26
F76547.0
sg27
F13.5
sg28
I00
sg29
F-218320.5
sg30
F1035.0
sg31
F463261.0
sg32
F106164.5
ssg1
(g5
S'e\x00\x00\x00\x00\x00\x00\x00'
p433
tp434
Rp435
(dp436
g12
F329078.0
sg13
F1184.0
sg14
F0.75
sg15
F77716.0
sg16
F1321557.0
sg17
F100000.0
sg18
F81525000.0
sg19
F750000.0
sg20
F-140264.0
sg21
F2606763.0
sg22
F63791.0
sg23
F20.0
sg24
F1637034.0
sg25
F52.0
sg26
F972.0
sg27
F15.0
sg28
I00
sg29
F-218320.5
sg30
F856.0
sg31
F969729.0
sg32
F106164.5
ssg1
(g5
S'f\x00\x00\x00\x00\x00\x00\x00'
p437
tp438
Rp439
(dp440
g12
F94941.0
sg13
F1459.5
sg14
F0.20689655172413793
sg15
F209376.5
sg16
F249787.0
sg17
F135836.0
sg18
F81525000.0
sg19
F850000.0
sg20
F-140264.0
sg21
F7307594.0
sg22
F18834.0
sg23
F42.0
sg24
F5266578.0
sg25
F41.0
sg26
F176.0
sg27
F13.5
sg28
I00
sg29
F-218320.5
sg30
F1035.0
sg31
F2041016.0
sg32
F106164.5
ssg1
(g5
S'g\x00\x00\x00\x00\x00\x00\x00'
p441
tp442
Rp443
(dp444
g12
F261879.0
sg13
F1459.5
sg14
F0.20689655172413793
sg15
F209376.5
sg16
F3123383.0
sg17
F540751.0
sg18
F81525000.0
sg19
F1000000.0
sg20
F-140264.0
sg21
F23817930.0
sg22
F32047.0
sg23
F42.0
sg24
F15364167.0
sg25
F41.0
sg26
F1829457.0
sg27
F13.5
sg28
I00
sg29
F-218320.5
sg30
F1035.0
sg31
F8453763.0
sg32
F106164.5
ssg1
(g5
S'h\x00\x00\x00\x00\x00\x00\x00'
p445
tp446
Rp447
(dp448
g12
F261844.0
sg13
F1459.5
sg14
F0.20689655172413793
sg15
F209376.5
sg16
F27942.0
sg17
F540751.0
sg18
F81525000.0
sg19
F850000.0
sg20
F-140264.0
sg21
F1599641.0
sg22
F27942.0
sg23
F42.0
sg24
F1465734.0
sg25
F41.0
sg26
F76547.0
sg27
F13.5
sg28
I00
sg29
F-101250.0
sg30
F1035.0
sg31
F524169.0
sg32
F101250.0
ssg1
(g5
S'i\x00\x00\x00\x00\x00\x00\x00'
p449
tp450
Rp451
(dp452
g12
F655037.0
sg13
F898.0
sg14
F0.0
sg15
F209376.5
sg16
F1386690.0
sg17
F540751.0
sg18
F400000.0
sg19
F300000.0
sg20
F-140264.0
sg21
F28798.0
sg22
F31653.0
sg23
F7.0
sg24
F28798.0
sg25
F67.0
sg26
F76547.0
sg27
F0.0
sg28
I00
sg29
F-218320.5
sg30
F728.0
sg31
F524169.0
sg32
F106164.5
ssg1
(g5
S'j\x00\x00\x00\x00\x00\x00\x00'
p453
tp454
Rp455
(dp456
g12
F197091.0
sg13
F1238.0
sg14
F0.7868852459016393
sg15
F1130036.0
sg16
F1737629.0
sg17
F540751.0
sg18
F81525000.0
sg19
F400000.0
sg20
F-409554.0
sg21
F880290.0
sg22
F43057.0
sg23
F61.0
sg24
F880290.0
sg25
F222.0
sg26
F778.0
sg27
F48.0
sg28
I00
sg29
F-33333.0
sg30
F742.0
sg31
F409554.0
sg32
F106164.5
ssg1
(g5
S'k\x00\x00\x00\x00\x00\x00\x00'
p457
tp458
Rp459
(dp460
g12
F261844.0
sg13
F58.0
sg14
F0.0
sg15
F209376.5
sg16
F1272284.0
sg17
F540751.0
sg18
F81525000.0
sg19
F850000.0
sg20
F-140264.0
sg21
F47304.0
sg22
F46950.0
sg23
F0.0
sg24
F1465734.0
sg25
F16.0
sg26
F76547.0
sg27
F1.0
sg28
I00
sg29
F-218320.5
sg30
F3.0
sg31
F47304.0
sg32
F106164.5
ssg1
(g5
S'l\x00\x00\x00\x00\x00\x00\x00'
p461
tp462
Rp463
(dp464
g12
F261844.0
sg13
F653.0
sg14
F0.0
sg15
F209376.5
sg16
F1272284.0
sg17
F540751.0
sg18
F81525000.0
sg19
F850000.0
sg20
F-140264.0
sg21
F1599641.0
sg22
F46950.0
sg23
F0.0
sg24
F1465734.0
sg25
F26.0
sg26
F76547.0
sg27
F0.0
sg28
I00
sg29
F-17500.0
sg30
F12.0
sg31
F524169.0
sg32
F17500.0
ssg1
(g5
S'm\x00\x00\x00\x00\x00\x00\x00'
p465
tp466
Rp467
(dp468
g12
F261844.0
sg13
F1459.5
sg14
F0.20689655172413793
sg15
F564348.0
sg16
F564348.0
sg17
F540751.0
sg18
F81525000.0
sg19
F850000.0
sg20
F-140264.0
sg21
F1095040.0
sg22
F46950.0
sg23
F42.0
sg24
F886231.0
sg25
F41.0
sg26
F76547.0
sg27
F13.5
sg28
I00
sg29
F-218320.5
sg30
F1035.0
sg31
F208809.0
sg32
F106164.5
ssg1
(g5
S'n\x00\x00\x00\x00\x00\x00\x00'
p469
tp470
Rp471
(dp472
g12
F96840.0
sg13
F1671.0
sg14
F0.24019607843137256
sg15
F209376.5
sg16
F111529.0
sg17
F540751.0
sg18
F81525000.0
sg19
F850000.0
sg20
F-140264.0
sg21
F7890324.0
sg22
F14689.0
sg23
F204.0
sg24
F7509039.0
sg25
F221.0
sg26
F76547.0
sg27
F49.0
sg28
I00
sg29
F-218320.5
sg30
F1063.0
sg31
F381285.0
sg32
F106164.5
ssg1
(g5
S'o\x00\x00\x00\x00\x00\x00\x00'
p473
tp474
Rp475
(dp476
g12
F76399.0
sg13
F1459.5
sg14
F0.20689655172413793
sg15
F51365.0
sg16
F394475.0
sg17
F156250.0
sg18
F81525000.0
sg19
F100000.0
sg20
F-140264.0
sg21
F4221891.0
sg22
F8409.0
sg23
F42.0
sg24
F4160672.0
sg25
F41.0
sg26
F202052.0
sg27
F13.5
sg28
I00
sg29
F-200000.0
sg30
F1035.0
sg31
F201483.0
sg32
F106164.5
ssg1
(g5
S'p\x00\x00\x00\x00\x00\x00\x00'
p477
tp478
Rp479
(dp480
g12
F420636.0
sg13
F905.0
sg14
F0.09523809523809523
sg15
F209376.5
sg16
F505050.0
sg17
F1617011.0
sg18
F81525000.0
sg19
F1750000.0
sg20
F-140264.0
sg21
F22542539.0
sg22
F46950.0
sg23
F42.0
sg24
F19794175.0
sg25
F18.0
sg26
F174839.0
sg27
F4.0
sg28
I01
sg29
F-3504386.0
sg30
F864.0
sg31
F2748364.0
sg32
F106164.5
ssg1
(g5
S'q\x00\x00\x00\x00\x00\x00\x00'
p481
tp482
Rp483
(dp484
g12
F249201.0
sg13
F1328.0
sg14
F1.3714285714285714
sg15
F214678.0
sg16
F1099100.0
sg17
F540751.0
sg18
F81525000.0
sg19
F700000.0
sg20
F-140264.0
sg21
F1918887.0
sg22
F33271.0
sg23
F35.0
sg24
F1635238.0
sg25
F82.0
sg26
F1950.0
sg27
F48.0
sg28
I01
sg29
F-100000.0
sg30
F1258.0
sg31
F283649.0
sg32
F106164.5
ssg1
(g5
S'r\x00\x00\x00\x00\x00\x00\x00'
p485
tp486
Rp487
(dp488
g12
F261844.0
sg13
F1459.5
sg14
F0.20689655172413793
sg15
F209376.5
sg16
F3750.0
sg17
F540751.0
sg18
F81525000.0
sg19
F850000.0
sg20
F-140264.0
sg21
F1599641.0
sg22
F46950.0
sg23
F42.0
sg24
F1465734.0
sg25
F41.0
sg26
F76547.0
sg27
F13.5
sg28
I00
sg29
F-121284.0
sg30
F1035.0
sg31
F524169.0
sg32
F125034.0
ssg1
(g5
S's\x00\x00\x00\x00\x00\x00\x00'
p489
tp490
Rp491
(dp492
g12
F261844.0
sg13
F1459.5
sg14
F0.20689655172413793
sg15
F209376.5
sg16
F1272284.0
sg17
F540751.0
sg18
F81525000.0
sg19
F850000.0
sg20
F-140264.0
sg21
F759557.0
sg22
F46950.0
sg23
F42.0
sg24
F759557.0
sg25
F41.0
sg26
F76547.0
sg27
F13.5
sg28
I00
sg29
F-218320.5
sg30
F1035.0
sg31
F524169.0
sg32
F106164.5
ssg1
(g5
S't\x00\x00\x00\x00\x00\x00\x00'
p493
tp494
Rp495
(dp496
g12
F304110.0
sg13
F3221.0
sg14
F0.8829787234042553
sg15
F209376.5
sg16
F3038702.0
sg17
F554422.0
sg18
F81525000.0
sg19
F2000000.0
sg20
F-140264.0
sg21
F2072035.0
sg22
F178979.0
sg23
F94.0
sg24
F1441898.0
sg25
F2681.0
sg26
F1191.0
sg27
F83.0
sg28
I00
sg29
F-218320.5
sg30
F1730.0
sg31
F630137.0
sg32
F106164.5
ssg1
(g5
S'u\x00\x00\x00\x00\x00\x00\x00'
p497
tp498
Rp499
(dp500
g12
F269076.0
sg13
F15149.0
sg14
F0.8783783783783784
sg15
F209376.5
sg16
F1057548.0
sg17
F540751.0
sg18
F81525000.0
sg19
F650000.0
sg20
F-140264.0
sg21
F987001.0
sg22
F137767.0
sg23
F74.0
sg24
F607837.0
sg25
F1215.0
sg26
F705.0
sg27
F65.0
sg28
I00
sg29
F-218320.5
sg30
F4527.0
sg31
F379164.0
sg32
F106164.5
ssg1
(g5
S'v\x00\x00\x00\x00\x00\x00\x00'
p501
tp502
Rp503
(dp504
g12
F248146.0
sg13
F3136.0
sg14
F0.25
sg15
F187469.0
sg16
F1576511.0
sg17
F422158.0
sg18
F81525000.0
sg19
F600000.0
sg20
F-140264.0
sg21
F494136.0
sg22
F116337.0
sg23
F24.0
sg24
F281073.0
sg25
F136.0
sg26
F2401.0
sg27
F6.0
sg28
I00
sg29
F-218320.5
sg30
F2477.0
sg31
F213063.0
sg32
F106164.5
ssg1
(g5
S'w\x00\x00\x00\x00\x00\x00\x00'
p505
tp506
Rp507
(dp508
g12
F211844.0
sg13
F225.0
sg14
F1.0769230769230769
sg15
F209376.5
sg16
F2003885.0
sg17
F540751.0
sg18
F81525000.0
sg19
F200000.0
sg20
F-140264.0
sg21
F2493616.0
sg22
F22884.0
sg23
F13.0
sg24
F1624396.0
sg25
F39.0
sg26
F1573324.0
sg27
F14.0
sg28
I01
sg29
F-4167.0
sg30
F91.0
sg31
F869220.0
sg32
F106164.5
ssg1
(g5
S'x\x00\x00\x00\x00\x00\x00\x00'
p509
tp510
Rp511
(dp512
g12
F261844.0
sg13
F613.0
sg14
F0.46153846153846156
sg15
F209376.5
sg16
F1272284.0
sg17
F540751.0
sg18
F81525000.0
sg19
F850000.0
sg20
F-140264.0
sg21
F1832468.0
sg22
F46950.0
sg23
F39.0
sg24
F1426469.0
sg25
F25.0
sg26
F76547.0
sg27
F18.0
sg28
I00
sg29
F-218320.5
sg30
F583.0
sg31
F405999.0
sg32
F106164.5
ssg1
(g5
S'y\x00\x00\x00\x00\x00\x00\x00'
p513
tp514
Rp515
(dp516
g12
F428780.0
sg13
F3187.0
sg14
F0.8214285714285714
sg15
F209376.5
sg16
F4335388.0
sg17
F554422.0
sg18
F81525000.0
sg19
F1500000.0
sg20
F-140264.0
sg21
F3128982.0
sg22
F46950.0
sg23
F28.0
sg24
F1835558.0
sg25
F92.0
sg26
F1852186.0
sg27
F23.0
sg28
I00
sg29
F-218320.5
sg30
F2103.0
sg31
F1293424.0
sg32
F106164.5
ssg1
(g5
S'z\x00\x00\x00\x00\x00\x00\x00'
p517
tp518
Rp519
(dp520
g12
F1111258.0
sg13
F3627.0
sg14
F0.3409090909090909
sg15
F209376.5
sg16
F8682716.0
sg17
F1920000.0
sg18
F81525000.0
sg19
F5600000.0
sg20
F-140264.0
sg21
F26093672.0
sg22
F29336.0
sg23
F88.0
sg24
F19250000.0
sg25
F108.0
sg26
F22122.0
sg27
F30.0
sg28
I01
sg29
F-218320.5
sg30
F2042.0
sg31
F6843672.0
sg32
F106164.5
ssg1
(g5
S'{\x00\x00\x00\x00\x00\x00\x00'
p521
tp522
Rp523
(dp524
g12
F239502.0
sg13
F1459.5
sg14
F0.20689655172413793
sg15
F209376.5
sg16
F1112087.0
sg17
F540751.0
sg18
F81525000.0
sg19
F500000.0
sg20
F-140264.0
sg21
F511734.0
sg22
F16514.0
sg23
F42.0
sg24
F1465734.0
sg25
F41.0
sg26
F356071.0
sg27
F13.5
sg28
I00
sg29
F-218320.5
sg30
F1035.0
sg31
F511734.0
sg32
F106164.5
ssg1
(g5
S'|\x00\x00\x00\x00\x00\x00\x00'
p525
tp526
Rp527
(dp528
g12
F162779.0
sg13
F1459.5
sg14
F0.20689655172413793
sg15
F181993.0
sg16
F999356.0
sg17
F554422.0
sg18
F81525000.0
sg19
F100000.0
sg20
F-140264.0
sg21
F1362375.0
sg22
F46950.0
sg23
F42.0
sg24
F1362375.0
sg25
F41.0
sg26
F162.0
sg27
F13.5
sg28
I00
sg29
F-218320.5
sg30
F1035.0
sg31
F524169.0
sg32
F106164.5
ssg1
(g5
S'}\x00\x00\x00\x00\x00\x00\x00'
p529
tp530
Rp531
(dp532
g12
F257486.0
sg13
F2647.0
sg14
F0.35135135135135137
sg15
F209376.5
sg16
F1545059.0
sg17
F476451.0
sg18
F81525000.0
sg19
F700000.0
sg20
F-140264.0
sg21
F698920.0
sg22
F46950.0
sg23
F37.0
sg24
F1465734.0
sg25
F38.0
sg26
F111122.0
sg27
F13.0
sg28
I00
sg29
F-218320.5
sg30
F2565.0
sg31
F698920.0
sg32
F106164.5
ssg1
(g5
S'~\x00\x00\x00\x00\x00\x00\x00'
p533
tp534
Rp535
(dp536
g12
F265214.0
sg13
F533.0
sg14
F0.0
sg15
F227449.0
sg16
F1092663.0
sg17
F540751.0
sg18
F81525000.0
sg19
F600000.0
sg20
F-140264.0
sg21
F3745048.0
sg22
F46950.0
sg23
F0.0
sg24
F3181250.0
sg25
F29.0
sg26
F76547.0
sg27
F0.0
sg28
I00
sg29
F-218320.5
sg30
F300.0
sg31
F563798.0
sg32
F106164.5
ssg1
(g5
S'\x7f\x00\x00\x00\x00\x00\x00\x00'
p537
tp538
Rp539
(dp540
g12
F222093.0
sg13
F266.0
sg14
F0.0
sg15
F16586.0
sg16
F911453.0
sg17
F200000.0
sg18
F81525000.0
sg19
F850000.0
sg20
F-140264.0
sg21
F4817796.0
sg22
F46145.0
sg23
F0.0
sg24
F4452476.0
sg25
F41.0
sg26
F426629.0
sg27
F0.0
sg28
I00
sg29
F-218320.5
sg30
F73.0
sg31
F365320.0
sg32
F106164.5
ssg1
(g5
S'\x80\x00\x00\x00\x00\x00\x00\x00'
p541
tp542
Rp543
(dp544
g12
F247338.0
sg13
F460.0
sg14
F1.1
sg15
F209376.5
sg16
F399393.0
sg17
F275000.0
sg18
F81525000.0
sg19
F300000.0
sg20
F-140264.0
sg21
F1168042.0
sg22
F46950.0
sg23
F10.0
sg24
F591250.0
sg25
F19.0
sg26
F152055.0
sg27
F11.0
sg28
I00
sg29
F-575000.0
sg30
F379.0
sg31
F576792.0
sg32
F106164.5
ssg1
(g5
S'\x81\x00\x00\x00\x00\x00\x00\x00'
p545
tp546
Rp547
(dp548
g12
F288589.0
sg13
F111.0
sg14
F0.0
sg15
F209376.5
sg16
F1130461.0
sg17
F540751.0
sg18
F81525000.0
sg19
F788750.0
sg20
F-140264.0
sg21
F1599641.0
sg22
F53122.0
sg23
F12.0
sg24
F1465734.0
sg25
F18.0
sg26
F76547.0
sg27
F0.0
sg28
I00
sg29
F-218320.5
sg30
F41.0
sg31
F524169.0
sg32
F106164.5
ssg1
(g5
S'\x82\x00\x00\x00\x00\x00\x00\x00'
p549
tp550
Rp551
(dp552
g12
F261844.0
sg13
F1459.5
sg14
F0.20689655172413793
sg15
F209376.5
sg16
F228656.0
sg17
F540751.0
sg18
F81525000.0
sg19
F850000.0
sg20
F-140264.0
sg21
F1599641.0
sg22
F228656.0
sg23
F42.0
sg24
F1465734.0
sg25
F41.0
sg26
F76547.0
sg27
F13.5
sg28
I00
sg29
F-36666.0
sg30
F1035.0
sg31
F524169.0
sg32
F36666.0
ssg1
(g5
S'\x83\x00\x00\x00\x00\x00\x00\x00'
p553
tp554
Rp555
(dp556
g12
F261844.0
sg13
F1459.5
sg14
F0.20689655172413793
sg15
F209376.5
sg16
F213071.0
sg17
F540751.0
sg18
F81525000.0
sg19
F850000.0
sg20
F-140264.0
sg21
F1599641.0
sg22
F103773.0
sg23
F42.0
sg24
F1465734.0
sg25
F41.0
sg26
F76547.0
sg27
F13.5
sg28
I00
sg29
F-218320.5
sg30
F1035.0
sg31
F524169.0
sg32
F109298.0
ssg1
(g5
S'\x84\x00\x00\x00\x00\x00\x00\x00'
p557
tp558
Rp559
(dp560
g12
F357091.0
sg13
F671.0
sg14
F0.0
sg15
F209376.5
sg16
F1798780.0
sg17
F540751.0
sg18
F81525000.0
sg19
F850000.0
sg20
F-140264.0
sg21
F5898997.0
sg22
F50936.0
sg23
F17.0
sg24
F4346544.0
sg25
F146.0
sg26
F2.0
sg27
F0.0
sg28
I00
sg29
F-218320.5
sg30
F215.0
sg31
F1552453.0
sg32
F106164.5
ssg1
(g5
S'\x85\x00\x00\x00\x00\x00\x00\x00'
p561
tp562
Rp563
(dp564
g12
F261844.0
sg13
F1459.5
sg14
F0.20689655172413793
sg15
F53625.0
sg16
F87410.0
sg17
F540751.0
sg18
F81525000.0
sg19
F850000.0
sg20
F-140264.0
sg21
F1030329.0
sg22
F33785.0
sg23
F42.0
sg24
F1030329.0
sg25
F41.0
sg26
F76547.0
sg27
F13.5
sg28
I00
sg29
F-218320.5
sg30
F1035.0
sg31
F524169.0
sg32
F106164.5
ssg1
(g5
S'\x86\x00\x00\x00\x00\x00\x00\x00'
p565
tp566
Rp567
(dp568
g12
F259996.0
sg13
F400.0
sg14
F0.3181818181818182
sg15
F831299.0
sg16
F1034395.0
sg17
F200000.0
sg18
F81525000.0
sg19
F325000.0
sg20
F-140264.0
sg21
F2056427.0
sg22
F46950.0
sg23
F22.0
sg24
F1668260.0
sg25
F30.0
sg26
F1425.0
sg27
F7.0
sg28
I00
sg29
F-583325.0
sg30
F337.0
sg31
F388167.0
sg32
F106164.5
ssg1
(g5
S'\x87\x00\x00\x00\x00\x00\x00\x00'
p569
tp570
Rp571
(dp572
g12
F63744.0
sg13
F1459.5
sg14
F0.20689655172413793
sg15
F209376.5
sg16
F762135.0
sg17
F256191.0
sg18
F81525000.0
sg19
F850000.0
sg20
F-140264.0
sg21
F384930.0
sg22
F51870.0
sg23
F42.0
sg24
F1465734.0
sg25
F41.0
sg26
F401130.0
sg27
F13.5
sg28
I00
sg29
F-10800.0
sg30
F1035.0
sg31
F384930.0
sg32
F106164.5
ssg1
(g5
S'\x88\x00\x00\x00\x00\x00\x00\x00'
p573
tp574
Rp575
(dp576
g12
F261844.0
sg13
F1459.5
sg14
F0.20689655172413793
sg15
F209376.5
sg16
F1272284.0
sg17
F540751.0
sg18
F81525000.0
sg19
F850000.0
sg20
F-140264.0
sg21
F98718.0
sg22
F46950.0
sg23
F42.0
sg24
F98718.0
sg25
F41.0
sg26
F76547.0
sg27
F13.5
sg28
I00
sg29
F-218320.5
sg30
F1035.0
sg31
F524169.0
sg32
F106164.5
ssg1
(g5
S'\x89\x00\x00\x00\x00\x00\x00\x00'
p577
tp578
Rp579
(dp580
g12
F510364.0
sg13
F6019.0
sg14
F0.12903225806451613
sg15
F209376.5
sg16
F4677574.0
sg17
F808346.0
sg18
F81525000.0
sg19
F3000000.0
sg20
F-140264.0
sg21
F6079137.0
sg22
F57838.0
sg23
F186.0
sg24
F3282960.0
sg25
F556.0
sg26
F301026.0
sg27
F24.0
sg28
I00
sg29
F-218320.5
sg30
F3920.0
sg31
F2796177.0
sg32
F106164.5
ssg1
(g5
S'\x8a\x00\x00\x00\x00\x00\x00\x00'
p581
tp582
Rp583
(dp584
g12
F317543.0
sg13
F1459.5
sg14
F0.20689655172413793
sg15
F209376.5
sg16
F1934359.0
sg17
F540751.0
sg18
F81525000.0
sg19
F450000.0
sg20
F-140264.0
sg21
F15144123.0
sg22
F81353.0
sg23
F42.0
sg24
F1297049.0
sg25
F41.0
sg26
F1085463.0
sg27
F13.5
sg28
I00
sg29
F-218320.5
sg30
F1035.0
sg31
F13847074.0
sg32
F106164.5
ssg1
(g5
S'\x8b\x00\x00\x00\x00\x00\x00\x00'
p585
tp586
Rp587
(dp588
g12
F261844.0
sg13
F1459.5
sg14
F0.20689655172413793
sg15
F209376.5
sg16
F84992.0
sg17
F540751.0
sg18
F81525000.0
sg19
F850000.0
sg20
F-140264.0
sg21
F1599641.0
sg22
F1413.0
sg23
F42.0
sg24
F1465734.0
sg25
F41.0
sg26
F76547.0
sg27
F13.5
sg28
I00
sg29
F-25000.0
sg30
F1035.0
sg31
F524169.0
sg32
F108579.0
ssg1
(g5
S'\x8c\x00\x00\x00\x00\x00\x00\x00'
p589
tp590
Rp591
(dp592
g12
F261844.0
sg13
F1459.5
sg14
F0.20689655172413793
sg15
F209376.5
sg16
F189583.0
sg17
F540751.0
sg18
F81525000.0
sg19
F850000.0
sg20
F-140264.0
sg21
F1599641.0
sg22
F46950.0
sg23
F42.0
sg24
F1465734.0
sg25
F41.0
sg26
F189583.0
sg27
F13.5
sg28
I00
sg29
F-218320.5
sg30
F1035.0
sg31
F524169.0
sg32
F106164.5
ssg1
(g5
S'\x8d\x00\x00\x00\x00\x00\x00\x00'
p593
tp594
Rp595
(dp596
g12
F261844.0
sg13
F1459.5
sg14
F0.20689655172413793
sg15
F209376.5
sg16
F1272284.0
sg17
F540751.0
sg18
F81525000.0
sg19
F850000.0
sg20
F-140264.0
sg21
F139130.0
sg22
F46950.0
sg23
F42.0
sg24
F139130.0
sg25
F41.0
sg26
F76547.0
sg27
F13.5
sg28
I00
sg29
F-218320.5
sg30
F1035.0
sg31
F524169.0
sg32
F106164.5
ssg1
(g5
S'\x8e\x00\x00\x00\x00\x00\x00\x00'
p597
tp598
Rp599
(dp600
g12
F158403.0
sg13
F1459.5
sg14
F0.20689655172413793
sg15
F209376.5
sg16
F360300.0
sg17
F540751.0
sg18
F81525000.0
sg19
F850000.0
sg20
F-140264.0
sg21
F11884758.0
sg22
F53947.0
sg23
F42.0
sg24
F8308552.0
sg25
F41.0
sg26
F147950.0
sg27
F13.5
sg28
I01
sg29
F-218320.5
sg30
F1035.0
sg31
F3576206.0
sg32
F106164.5
ssg1
(g5
S'\x8f\x00\x00\x00\x00\x00\x00\x00'
p601
tp602
Rp603
(dp604
g12
F261844.0
sg13
F1459.5
sg14
F0.20689655172413793
sg15
F209376.5
sg16
F55097.0
sg17
F540751.0
sg18
F81525000.0
sg19
F850000.0
sg20
F-140264.0
sg21
F192758.0
sg22
F55097.0
sg23
F42.0
sg24
F192758.0
sg25
F41.0
sg26
F76547.0
sg27
F13.5
sg28
I00
sg29
F-218320.5
sg30
F1035.0
sg31
F524169.0
sg32
F106164.5
ssg1
(g5
S'\x90\x00\x00\x00\x00\x00\x00\x00'
p605
tp606
Rp607
(dp608
g12
F213999.0
sg13
F7991.0
sg14
F0.47368421052631576
sg15
F2144013.0
sg16
F5501630.0
sg17
F540751.0
sg18
F81525000.0
sg19
F5249999.0
sg20
F-140264.0
sg21
F1110705.0
sg22
F17355.0
sg23
F228.0
sg24
F953136.0
sg25
F484.0
sg26
F210698.0
sg27
F108.0
sg28
I01
sg29
F-2334434.0
sg30
F5521.0
sg31
F157569.0
sg32
F106164.5
ssg1
(g5
S'\x91\x00\x00\x00\x00\x00\x00\x00'
p609
tp610
Rp611
(dp612
g12
F278601.0
sg13
F1858.0
sg14
F0.10714285714285714
sg15
F209376.5
sg16
F2669589.0
sg17
F974293.0
sg18
F81525000.0
sg19
F1350000.0
sg20
F-140264.0
sg21
F252055.0
sg22
F65907.0
sg23
F140.0
sg24
F1465734.0
sg25
F27.0
sg26
F1621.0
sg27
F15.0
sg28
I01
sg29
F-833.0
sg30
F1593.0
sg31
F252055.0
sg32
F106164.5
ssg1
(g5
S'\x92\x00\x00\x00\x00\x00\x00\x00'
p613
tp614
Rp615
(dp616
g12
F240189.0
sg13
F2598.0
sg14
F0.12562814070351758
sg15
F209376.5
sg16
F1639297.0
sg17
F375304.0
sg18
F81525000.0
sg19
F1250000.0
sg20
F-140264.0
sg21
F126027.0
sg22
F35818.0
sg23
F199.0
sg24
F1465734.0
sg25
F144.0
sg26
F486.0
sg27
F25.0
sg28
I01
sg29
F-262500.0
sg30
F2188.0
sg31
F126027.0
sg32
F106164.5
ssg1
(g5
S'\x93\x00\x00\x00\x00\x00\x00\x00'
p617
tp618
Rp619
(dp620
g12
F415189.0
sg13
F1892.0
sg14
F0.20689655172413793
sg15
F209376.5
sg16
F1868758.0
sg17
F350000.0
sg18
F81525000.0
sg19
F1000000.0
sg20
F-140264.0
sg21
F2502063.0
sg22
F30674.0
sg23
F58.0
sg24
F1465734.0
sg25
F49.0
sg26
F307895.0
sg27
F12.0
sg28
I01
sg29
F-235000.0
sg30
F1585.0
sg31
F2502063.0
sg32
F106164.5
ssg1
(g5
S'\x94\x00\x00\x00\x00\x00\x00\x00'
p621
tp622
Rp623
(dp624
g12
F288542.0
sg13
F1758.0
sg14
F0.04583333333333333
sg15
F27610.0
sg16
F1490344.0
sg17
F540751.0
sg18
F81525000.0
sg19
F1200000.0
sg20
F-140264.0
sg21
F698242.0
sg22
F16514.0
sg23
F240.0
sg24
F1465734.0
sg25
F40.0
sg26
F101740.0
sg27
F11.0
sg28
I01
sg29
F-144062.0
sg30
F1132.0
sg31
F698242.0
sg32
F106164.5
ssg1
(g5
S'\x95\x00\x00\x00\x00\x00\x00\x00'
p625
tp626
Rp627
(dp628
g12
F365163.0
sg13
F3093.0
sg14
F9.227272727272727
sg15
F209376.5
sg16
F4747979.0
sg17
F1294981.0
sg18
F81525000.0
sg19
F3000000.0
sg20
F-140264.0
sg21
F3614261.0
sg22
F86174.0
sg23
F66.0
sg24
F2291113.0
sg25
F3069.0
sg26
F1661.0
sg27
F609.0
sg28
I01
sg29
F-218320.5
sg30
F2097.0
sg31
F1323148.0
sg32
F106164.5
ssg1
(g5
S'\x96\x00\x00\x00\x00\x00\x00\x00'
p629
tp630
Rp631
(dp632
g12
F440698.0
sg13
F1459.5
sg14
F0.20689655172413793
sg15
F209376.5
sg16
F2424083.0
sg17
F1736055.0
sg18
F81525000.0
sg19
F1300000.0
sg20
F-140264.0
sg21
F1794412.0
sg22
F55921.0
sg23
F42.0
sg24
F1465734.0
sg25
F41.0
sg26
F277464.0
sg27
F13.5
sg28
I01
sg29
F-1386055.0
sg30
F1035.0
sg31
F1794412.0
sg32
F106164.5
ssg1
(g5
S'\x97\x00\x00\x00\x00\x00\x00\x00'
p633
tp634
Rp635
(dp636
g12
F274975.0
sg13
F873.0
sg14
F0.11538461538461539
sg15
F209376.5
sg16
F1272284.0
sg17
F71023.0
sg18
F81525000.0
sg19
F600000.0
sg20
F-140264.0
sg21
F778546.0
sg22
F125978.0
sg23
F52.0
sg24
F384728.0
sg25
F16.0
sg26
F200308.0
sg27
F6.0
sg28
I01
sg29
F-218320.5
sg30
F874.0
sg31
F393818.0
sg32
F106164.5
ssg1
(g5
S'\x98\x00\x00\x00\x00\x00\x00\x00'
p637
tp638
Rp639
(dp640
g12
F243293.0
sg13
F1045.0
sg14
F0.65625
sg15
F209376.5
sg16
F288682.0
sg17
F1617011.0
sg18
F81525000.0
sg19
F1500000.0
sg20
F-140264.0
sg21
F6391065.0
sg22
F34039.0
sg23
F32.0
sg24
F5538001.0
sg25
F32.0
sg26
F11350.0
sg27
F21.0
sg28
I01
sg29
F-3117011.0
sg30
F1035.0
sg31
F853064.0
sg32
F106164.5
ssg1
(g5
S'\x99\x00\x00\x00\x00\x00\x00\x00'
p641
tp642
Rp643
(dp644
g12
F261844.0
sg13
F1459.5
sg14
F0.20689655172413793
sg15
F10259.0
sg16
F91093.0
sg17
F540751.0
sg18
F81525000.0
sg19
F850000.0
sg20
F-140264.0
sg21
F30766064.0
sg22
F77978.0
sg23
F42.0
sg24
F30766064.0
sg25
F41.0
sg26
F2856.0
sg27
F13.5
sg28
I01
sg29
F-218320.5
sg30
F1035.0
sg31
F524169.0
sg32
F106164.5
ssg1
(g5
S'\x9a\x00\x00\x00\x00\x00\x00\x00'
p645
tp646
Rp647
(dp648
g12
F309946.0
sg13
F2374.0
sg14
F0.2830188679245283
sg15
F209376.5
sg16
F1587421.0
sg17
F300000.0
sg18
F81525000.0
sg19
F700000.0
sg20
F-140264.0
sg21
F1920055.0
sg22
F127017.0
sg23
F53.0
sg24
F671737.0
sg25
F61.0
sg26
F150458.0
sg27
F15.0
sg28
I01
sg29
F-218320.5
sg30
F2271.0
sg31
F1248318.0
sg32
F106164.5
ssg1
(g5
S'\x9b\x00\x00\x00\x00\x00\x00\x00'
p649
tp650
Rp651
(dp652
g12
F224305.0
sg13
F1459.5
sg14
F0.20689655172413793
sg15
F209376.5
sg16
F2652612.0
sg17
F602671.0
sg18
F81525000.0
sg19
F800000.0
sg20
F-140264.0
sg21
F985032.0
sg22
F118134.0
sg23
F42.0
sg24
F1465734.0
sg25
F41.0
sg26
F907502.0
sg27
F13.5
sg28
I01
sg29
F-218320.5
sg30
F1035.0
sg31
F985032.0
sg32
F106164.5
ssg1
(g5
S'\x9c\x00\x00\x00\x00\x00\x00\x00'
p653
tp654
Rp655
(dp656
g12
F1072321.0
sg13
F4273.0
sg14
F0.13008130081300814
sg15
F202911.0
sg16
F103559793.0
sg17
F3600000.0
sg18
F81525000.0
sg19
F7000000.0
sg20
F-140264.0
sg21
F49110078.0
sg22
F99832.0
sg23
F123.0
sg24
F34348384.0
sg25
F36.0
sg26
F10359729.0
sg27
F16.0
sg28
I01
sg29
F-300000.0
sg30
F2411.0
sg31
F14761694.0
sg32
F106164.5
ssg1
(g5
S'\x9d\x00\x00\x00\x00\x00\x00\x00'
p657
tp658
Rp659
(dp660
g12
F420636.0
sg13
F905.0
sg14
F0.09523809523809523
sg15
F209376.5
sg16
F505050.0
sg17
F1617011.0
sg18
F81525000.0
sg19
F1750000.0
sg20
F-140264.0
sg21
F22542539.0
sg22
F46950.0
sg23
F42.0
sg24
F19794175.0
sg25
F18.0
sg26
F174839.0
sg27
F4.0
sg28
I01
sg29
F-3504386.0
sg30
F864.0
sg31
F2748364.0
sg32
F106164.5
ssg1
(g5
S'\x9e\x00\x00\x00\x00\x00\x00\x00'
p661
tp662
Rp663
(dp664
g12
F249201.0
sg13
F1328.0
sg14
F1.3714285714285714
sg15
F214678.0
sg16
F1099100.0
sg17
F540751.0
sg18
F81525000.0
sg19
F700000.0
sg20
F-140264.0
sg21
F1918887.0
sg22
F33271.0
sg23
F35.0
sg24
F1635238.0
sg25
F82.0
sg26
F1950.0
sg27
F48.0
sg28
I01
sg29
F-100000.0
sg30
F1258.0
sg31
F283649.0
sg32
F106164.5
ssg1
(g5
S'\x9f\x00\x00\x00\x00\x00\x00\x00'
p665
tp666
Rp667
(dp668
g12
F211844.0
sg13
F225.0
sg14
F1.0769230769230769
sg15
F209376.5
sg16
F2003885.0
sg17
F540751.0
sg18
F81525000.0
sg19
F200000.0
sg20
F-140264.0
sg21
F2493616.0
sg22
F22884.0
sg23
F13.0
sg24
F1624396.0
sg25
F39.0
sg26
F1573324.0
sg27
F14.0
sg28
I01
sg29
F-4167.0
sg30
F91.0
sg31
F869220.0
sg32
F106164.5
ssg1
(g5
S'\xa0\x00\x00\x00\x00\x00\x00\x00'
p669
tp670
Rp671
(dp672
g12
F1111258.0
sg13
F3627.0
sg14
F0.3409090909090909
sg15
F209376.5
sg16
F8682716.0
sg17
F1920000.0
sg18
F81525000.0
sg19
F5600000.0
sg20
F-140264.0
sg21
F26093672.0
sg22
F29336.0
sg23
F88.0
sg24
F19250000.0
sg25
F108.0
sg26
F22122.0
sg27
F30.0
sg28
I01
sg29
F-218320.5
sg30
F2042.0
sg31
F6843672.0
sg32
F106164.5
ssg1
(g5
S'\xa1\x00\x00\x00\x00\x00\x00\x00'
p673
tp674
Rp675
(dp676
g12
F158403.0
sg13
F1459.5
sg14
F0.20689655172413793
sg15
F209376.5
sg16
F360300.0
sg17
F540751.0
sg18
F81525000.0
sg19
F850000.0
sg20
F-140264.0
sg21
F11884758.0
sg22
F53947.0
sg23
F42.0
sg24
F8308552.0
sg25
F41.0
sg26
F147950.0
sg27
F13.5
sg28
I01
sg29
F-218320.5
sg30
F1035.0
sg31
F3576206.0
sg32
F106164.5
ssg1
(g5
S'\xa2\x00\x00\x00\x00\x00\x00\x00'
p677
tp678
Rp679
(dp680
g12
F213999.0
sg13
F7991.0
sg14
F0.47368421052631576
sg15
F2144013.0
sg16
F5501630.0
sg17
F540751.0
sg18
F81525000.0
sg19
F5249999.0
sg20
F-140264.0
sg21
F1110705.0
sg22
F17355.0
sg23
F228.0
sg24
F953136.0
sg25
F484.0
sg26
F210698.0
sg27
F108.0
sg28
I01
sg29
F-2334434.0
sg30
F5521.0
sg31
F157569.0
sg32
F106164.5
ssg1
(g5
S'\xa3\x00\x00\x00\x00\x00\x00\x00'
p681
tp682
Rp683
(dp684
g12
F278601.0
sg13
F1858.0
sg14
F0.10714285714285714
sg15
F209376.5
sg16
F2669589.0
sg17
F974293.0
sg18
F81525000.0
sg19
F1350000.0
sg20
F-140264.0
sg21
F252055.0
sg22
F65907.0
sg23
F140.0
sg24
F1465734.0
sg25
F27.0
sg26
F1621.0
sg27
F15.0
sg28
I01
sg29
F-833.0
sg30
F1593.0
sg31
F252055.0
sg32
F106164.5
ssg1
(g5
S'\xa4\x00\x00\x00\x00\x00\x00\x00'
p685
tp686
Rp687
(dp688
g12
F240189.0
sg13
F2598.0
sg14
F0.12562814070351758
sg15
F209376.5
sg16
F1639297.0
sg17
F375304.0
sg18
F81525000.0
sg19
F1250000.0
sg20
F-140264.0
sg21
F126027.0
sg22
F35818.0
sg23
F199.0
sg24
F1465734.0
sg25
F144.0
sg26
F486.0
sg27
F25.0
sg28
I01
sg29
F-262500.0
sg30
F2188.0
sg31
F126027.0
sg32
F106164.5
ssg1
(g5
S'\xa5\x00\x00\x00\x00\x00\x00\x00'
p689
tp690
Rp691
(dp692
g12
F415189.0
sg13
F1892.0
sg14
F0.20689655172413793
sg15
F209376.5
sg16
F1868758.0
sg17
F350000.0
sg18
F81525000.0
sg19
F1000000.0
sg20
F-140264.0
sg21
F2502063.0
sg22
F30674.0
sg23
F58.0
sg24
F1465734.0
sg25
F49.0
sg26
F307895.0
sg27
F12.0
sg28
I01
sg29
F-235000.0
sg30
F1585.0
sg31
F2502063.0
sg32
F106164.5
ssg1
(g5
S'\xa6\x00\x00\x00\x00\x00\x00\x00'
p693
tp694
Rp695
(dp696
g12
F288542.0
sg13
F1758.0
sg14
F0.04583333333333333
sg15
F27610.0
sg16
F1490344.0
sg17
F540751.0
sg18
F81525000.0
sg19
F1200000.0
sg20
F-140264.0
sg21
F698242.0
sg22
F16514.0
sg23
F240.0
sg24
F1465734.0
sg25
F40.0
sg26
F101740.0
sg27
F11.0
sg28
I01
sg29
F-144062.0
sg30
F1132.0
sg31
F698242.0
sg32
F106164.5
ssg1
(g5
S'\xa7\x00\x00\x00\x00\x00\x00\x00'
p697
tp698
Rp699
(dp700
g12
F365163.0
sg13
F3093.0
sg14
F9.227272727272727
sg15
F209376.5
sg16
F4747979.0
sg17
F1294981.0
sg18
F81525000.0
sg19
F3000000.0
sg20
F-140264.0
sg21
F3614261.0
sg22
F86174.0
sg23
F66.0
sg24
F2291113.0
sg25
F3069.0
sg26
F1661.0
sg27
F609.0
sg28
I01
sg29
F-218320.5
sg30
F2097.0
sg31
F1323148.0
sg32
F106164.5
ssg1
(g5
S'\xa8\x00\x00\x00\x00\x00\x00\x00'
p701
tp702
Rp703
(dp704
g12
F440698.0
sg13
F1459.5
sg14
F0.20689655172413793
sg15
F209376.5
sg16
F2424083.0
sg17
F1736055.0
sg18
F81525000.0
sg19
F1300000.0
sg20
F-140264.0
sg21
F1794412.0
sg22
F55921.0
sg23
F42.0
sg24
F1465734.0
sg25
F41.0
sg26
F277464.0
sg27
F13.5
sg28
I01
sg29
F-1386055.0
sg30
F1035.0
sg31
F1794412.0
sg32
F106164.5
ssg1
(g5
S'\xa9\x00\x00\x00\x00\x00\x00\x00'
p705
tp706
Rp707
(dp708
g12
F274975.0
sg13
F873.0
sg14
F0.11538461538461539
sg15
F209376.5
sg16
F1272284.0
sg17
F71023.0
sg18
F81525000.0
sg19
F600000.0
sg20
F-140264.0
sg21
F778546.0
sg22
F125978.0
sg23
F52.0
sg24
F384728.0
sg25
F16.0
sg26
F200308.0
sg27
F6.0
sg28
I01
sg29
F-218320.5
sg30
F874.0
sg31
F393818.0
sg32
F106164.5
ssg1
(g5
S'\xaa\x00\x00\x00\x00\x00\x00\x00'
p709
tp710
Rp711
(dp712
g12
F243293.0
sg13
F1045.0
sg14
F0.65625
sg15
F209376.5
sg16
F288682.0
sg17
F1617011.0
sg18
F81525000.0
sg19
F1500000.0
sg20
F-140264.0
sg21
F6391065.0
sg22
F34039.0
sg23
F32.0
sg24
F5538001.0
sg25
F32.0
sg26
F11350.0
sg27
F21.0
sg28
I01
sg29
F-3117011.0
sg30
F1035.0
sg31
F853064.0
sg32
F106164.5
ssg1
(g5
S'\xab\x00\x00\x00\x00\x00\x00\x00'
p713
tp714
Rp715
(dp716
g12
F261844.0
sg13
F1459.5
sg14
F0.20689655172413793
sg15
F10259.0
sg16
F91093.0
sg17
F540751.0
sg18
F81525000.0
sg19
F850000.0
sg20
F-140264.0
sg21
F30766064.0
sg22
F77978.0
sg23
F42.0
sg24
F30766064.0
sg25
F41.0
sg26
F2856.0
sg27
F13.5
sg28
I01
sg29
F-218320.5
sg30
F1035.0
sg31
F524169.0
sg32
F106164.5
ssg1
(g5
S'\xac\x00\x00\x00\x00\x00\x00\x00'
p717
tp718
Rp719
(dp720
g12
F309946.0
sg13
F2374.0
sg14
F0.2830188679245283
sg15
F209376.5
sg16
F1587421.0
sg17
F300000.0
sg18
F81525000.0
sg19
F700000.0
sg20
F-140264.0
sg21
F1920055.0
sg22
F127017.0
sg23
F53.0
sg24
F671737.0
sg25
F61.0
sg26
F150458.0
sg27
F15.0
sg28
I01
sg29
F-218320.5
sg30
F2271.0
sg31
F1248318.0
sg32
F106164.5
ssg1
(g5
S'\xad\x00\x00\x00\x00\x00\x00\x00'
p721
tp722
Rp723
(dp724
g12
F224305.0
sg13
F1459.5
sg14
F0.20689655172413793
sg15
F209376.5
sg16
F2652612.0
sg17
F602671.0
sg18
F81525000.0
sg19
F800000.0
sg20
F-140264.0
sg21
F985032.0
sg22
F118134.0
sg23
F42.0
sg24
F1465734.0
sg25
F41.0
sg26
F907502.0
sg27
F13.5
sg28
I01
sg29
F-218320.5
sg30
F1035.0
sg31
F985032.0
sg32
F106164.5
ssg1
(g5
S'\xae\x00\x00\x00\x00\x00\x00\x00'
p725
tp726
Rp727
(dp728
g12
F1072321.0
sg13
F4273.0
sg14
F0.13008130081300814
sg15
F202911.0
sg16
F103559793.0
sg17
F3600000.0
sg18
F81525000.0
sg19
F7000000.0
sg20
F-140264.0
sg21
F49110078.0
sg22
F99832.0
sg23
F123.0
sg24
F34348384.0
sg25
F36.0
sg26
F10359729.0
sg27
F16.0
sg28
I01
sg29
F-300000.0
sg30
F2411.0
sg31
F14761694.0
sg32
F106164.5
ssg1
(g5
S'\xaf\x00\x00\x00\x00\x00\x00\x00'
p729
tp730
Rp731
(dp732
g12
F420636.0
sg13
F905.0
sg14
F0.09523809523809523
sg15
F209376.5
sg16
F505050.0
sg17
F1617011.0
sg18
F81525000.0
sg19
F1750000.0
sg20
F-140264.0
sg21
F22542539.0
sg22
F46950.0
sg23
F42.0
sg24
F19794175.0
sg25
F18.0
sg26
F174839.0
sg27
F4.0
sg28
I01
sg29
F-3504386.0
sg30
F864.0
sg31
F2748364.0
sg32
F106164.5
ssg1
(g5
S'\xb0\x00\x00\x00\x00\x00\x00\x00'
p733
tp734
Rp735
(dp736
g12
F249201.0
sg13
F1328.0
sg14
F1.3714285714285714
sg15
F214678.0
sg16
F1099100.0
sg17
F540751.0
sg18
F81525000.0
sg19
F700000.0
sg20
F-140264.0
sg21
F1918887.0
sg22
F33271.0
sg23
F35.0
sg24
F1635238.0
sg25
F82.0
sg26
F1950.0
sg27
F48.0
sg28
I01
sg29
F-100000.0
sg30
F1258.0
sg31
F283649.0
sg32
F106164.5
ssg1
(g5
S'\xb1\x00\x00\x00\x00\x00\x00\x00'
p737
tp738
Rp739
(dp740
g12
F211844.0
sg13
F225.0
sg14
F1.0769230769230769
sg15
F209376.5
sg16
F2003885.0
sg17
F540751.0
sg18
F81525000.0
sg19
F200000.0
sg20
F-140264.0
sg21
F2493616.0
sg22
F22884.0
sg23
F13.0
sg24
F1624396.0
sg25
F39.0
sg26
F1573324.0
sg27
F14.0
sg28
I01
sg29
F-4167.0
sg30
F91.0
sg31
F869220.0
sg32
F106164.5
ssg1
(g5
S'\xb2\x00\x00\x00\x00\x00\x00\x00'
p741
tp742
Rp743
(dp744
g12
F1111258.0
sg13
F3627.0
sg14
F0.3409090909090909
sg15
F209376.5
sg16
F8682716.0
sg17
F1920000.0
sg18
F81525000.0
sg19
F5600000.0
sg20
F-140264.0
sg21
F26093672.0
sg22
F29336.0
sg23
F88.0
sg24
F19250000.0
sg25
F108.0
sg26
F22122.0
sg27
F30.0
sg28
I01
sg29
F-218320.5
sg30
F2042.0
sg31
F6843672.0
sg32
F106164.5
ssg1
(g5
S'\xb3\x00\x00\x00\x00\x00\x00\x00'
p745
tp746
Rp747
(dp748
g12
F158403.0
sg13
F1459.5
sg14
F0.20689655172413793
sg15
F209376.5
sg16
F360300.0
sg17
F540751.0
sg18
F81525000.0
sg19
F850000.0
sg20
F-140264.0
sg21
F11884758.0
sg22
F53947.0
sg23
F42.0
sg24
F8308552.0
sg25
F41.0
sg26
F147950.0
sg27
F13.5
sg28
I01
sg29
F-218320.5
sg30
F1035.0
sg31
F3576206.0
sg32
F106164.5
ss.